################################################################################
#                                                                              #
#      IAR Universal Linker V5.4.1.30                                          #
#                                                                              #
#           Link time     =  26/Apr/2013  16:24:40                             #
#           Target CPU    =  MSP430                                            #
#           List file     =  C:\Users\student\Documents\GitHub\MHMS\ZAP-MSP430 #
#                            -2.5.1\Projects\zstack\ZAP\TVSA\EXP5438\Routinato #
#                            r\List\TVSA.map                                   #
#           Output file 1 =  C:\Users\student\Documents\GitHub\MHMS\ZAP-MSP430 #
#                            -2.5.1\Projects\zstack\ZAP\TVSA\EXP5438\Routinato #
#                            r\Exe\TVSA.d43                                    #
#                            Format: debug                                     #
#                            UBROF version 10.0.6                              #
#                            Using library modules for C-SPY (-rt)             #
#           Command line  =  C:\Users\student\Documents\GitHub\MHMS\ZAP-MSP430 #
#                            -2.5.1\Projects\zstack\ZAP\TVSA\EXP5438\Routinato #
#                            r\Obj\MSP430FlashUtil.r43                         #
#                            C:\Users\student\Documents\GitHub\MHMS\ZAP-MSP430 #
#                            -2.5.1\Projects\zstack\ZAP\TVSA\EXP5438\Routinato #
#                            r\Obj\OSAL.r43                                    #
#                            C:\Users\student\Documents\GitHub\MHMS\ZAP-MSP430 #
#                            -2.5.1\Projects\zstack\ZAP\TVSA\EXP5438\Routinato #
#                            r\Obj\OSAL_Memory.r43                             #
#                            C:\Users\student\Documents\GitHub\MHMS\ZAP-MSP430 #
#                            -2.5.1\Projects\zstack\ZAP\TVSA\EXP5438\Routinato #
#                            r\Obj\OSAL_Nv.r43                                 #
#                            C:\Users\student\Documents\GitHub\MHMS\ZAP-MSP430 #
#                            -2.5.1\Projects\zstack\ZAP\TVSA\EXP5438\Routinato #
#                            r\Obj\OSAL_PwrMgr.r43                             #
#                            C:\Users\student\Documents\GitHub\MHMS\ZAP-MSP430 #
#                            -2.5.1\Projects\zstack\ZAP\TVSA\EXP5438\Routinato #
#                            r\Obj\OSAL_TVSA.r43                               #
#                            C:\Users\student\Documents\GitHub\MHMS\ZAP-MSP430 #
#                            -2.5.1\Projects\zstack\ZAP\TVSA\EXP5438\Routinato #
#                            r\Obj\OSAL_Timers.r43                             #
#                            C:\Users\student\Documents\GitHub\MHMS\ZAP-MSP430 #
#                            -2.5.1\Projects\zstack\ZAP\TVSA\EXP5438\Routinato #
#                            r\Obj\hal_adc.r43                                 #
#                            C:\Users\student\Documents\GitHub\MHMS\ZAP-MSP430 #
#                            -2.5.1\Projects\zstack\ZAP\TVSA\EXP5438\Routinato #
#                            r\Obj\hal_assert.r43                              #
#                            C:\Users\student\Documents\GitHub\MHMS\ZAP-MSP430 #
#                            -2.5.1\Projects\zstack\ZAP\TVSA\EXP5438\Routinato #
#                            r\Obj\hal_board.r43                               #
#                            C:\Users\student\Documents\GitHub\MHMS\ZAP-MSP430 #
#                            -2.5.1\Projects\zstack\ZAP\TVSA\EXP5438\Routinato #
#                            r\Obj\hal_dco.r43                                 #
#                            C:\Users\student\Documents\GitHub\MHMS\ZAP-MSP430 #
#                            -2.5.1\Projects\zstack\ZAP\TVSA\EXP5438\Routinato #
#                            r\Obj\hal_drivers.r43                             #
#                            C:\Users\student\Documents\GitHub\MHMS\ZAP-MSP430 #
#                            -2.5.1\Projects\zstack\ZAP\TVSA\EXP5438\Routinato #
#                            r\Obj\hal_key.r43                                 #
#                            C:\Users\student\Documents\GitHub\MHMS\ZAP-MSP430 #
#                            -2.5.1\Projects\zstack\ZAP\TVSA\EXP5438\Routinato #
#                            r\Obj\hal_lcd.r43                                 #
#                            C:\Users\student\Documents\GitHub\MHMS\ZAP-MSP430 #
#                            -2.5.1\Projects\zstack\ZAP\TVSA\EXP5438\Routinato #
#                            r\Obj\hal_led.r43                                 #
#                            C:\Users\student\Documents\GitHub\MHMS\ZAP-MSP430 #
#                            -2.5.1\Projects\zstack\ZAP\TVSA\EXP5438\Routinato #
#                            r\Obj\hal_main.r43                                #
#                            C:\Users\student\Documents\GitHub\MHMS\ZAP-MSP430 #
#                            -2.5.1\Projects\zstack\ZAP\TVSA\EXP5438\Routinato #
#                            r\Obj\hal_spi.r43                                 #
#                            C:\Users\student\Documents\GitHub\MHMS\ZAP-MSP430 #
#                            -2.5.1\Projects\zstack\ZAP\TVSA\EXP5438\Routinato #
#                            r\Obj\hal_startup.r43                             #
#                            C:\Users\student\Documents\GitHub\MHMS\ZAP-MSP430 #
#                            -2.5.1\Projects\zstack\ZAP\TVSA\EXP5438\Routinato #
#                            r\Obj\hal_uart.r43                                #
#                            C:\Users\student\Documents\GitHub\MHMS\ZAP-MSP430 #
#                            -2.5.1\Projects\zstack\ZAP\TVSA\EXP5438\Routinato #
#                            r\Obj\saddr.r43                                   #
#                            C:\Users\student\Documents\GitHub\MHMS\ZAP-MSP430 #
#                            -2.5.1\Projects\zstack\ZAP\TVSA\EXP5438\Routinato #
#                            r\Obj\tvsa.r43                                    #
#                            C:\Users\student\Documents\GitHub\MHMS\ZAP-MSP430 #
#                            -2.5.1\Projects\zstack\ZAP\TVSA\EXP5438\Routinato #
#                            r\Obj\zap_af.r43                                  #
#                            C:\Users\student\Documents\GitHub\MHMS\ZAP-MSP430 #
#                            -2.5.1\Projects\zstack\ZAP\TVSA\EXP5438\Routinato #
#                            r\Obj\zap_app.r43                                 #
#                            C:\Users\student\Documents\GitHub\MHMS\ZAP-MSP430 #
#                            -2.5.1\Projects\zstack\ZAP\TVSA\EXP5438\Routinato #
#                            r\Obj\zap_phy.r43                                 #
#                            C:\Users\student\Documents\GitHub\MHMS\ZAP-MSP430 #
#                            -2.5.1\Projects\zstack\ZAP\TVSA\EXP5438\Routinato #
#                            r\Obj\zap_sapi.r43                                #
#                            C:\Users\student\Documents\GitHub\MHMS\ZAP-MSP430 #
#                            -2.5.1\Projects\zstack\ZAP\TVSA\EXP5438\Routinato #
#                            r\Obj\zap_sys.r43                                 #
#                            C:\Users\student\Documents\GitHub\MHMS\ZAP-MSP430 #
#                            -2.5.1\Projects\zstack\ZAP\TVSA\EXP5438\Routinato #
#                            r\Obj\zap_util.r43                                #
#                            C:\Users\student\Documents\GitHub\MHMS\ZAP-MSP430 #
#                            -2.5.1\Projects\zstack\ZAP\TVSA\EXP5438\Routinato #
#                            r\Obj\zap_zdo.r43                                 #
#                            C:\Users\student\Documents\GitHub\MHMS\ZAP-MSP430 #
#                            -2.5.1\Projects\zstack\ZAP\TVSA\EXP5438\Routinato #
#                            r\Obj\zap_zmac.r43                                #
#                            C:\Users\student\Documents\GitHub\MHMS\ZAP-MSP430 #
#                            -2.5.1\Projects\zstack\ZAP\TVSA\EXP5438\Routinato #
#                            r\Obj\zap_znp.r43                                 #
#                            -o                                                #
#                            C:\Users\student\Documents\GitHub\MHMS\ZAP-MSP430 #
#                            -2.5.1\Projects\zstack\ZAP\TVSA\EXP5438\Routinato #
#                            r\Exe\TVSA.d43                                    #
#                            -l                                                #
#                            C:\Users\student\Documents\GitHub\MHMS\ZAP-MSP430 #
#                            -2.5.1\Projects\zstack\ZAP\TVSA\EXP5438\Routinato #
#                            r\List\TVSA.map                                   #
#                            -xmsn                                             #
#                            "-IC:\Program Files (x86)\IAR Systems\Embedded Wo #
#                            rkbench 6.4\430\LIB\"                             #
#                            -f                                                #
#                            C:\Users\student\Documents\GitHub\MHMS\ZAP-MSP430 #
#                            -2.5.1\Projects\zstack\ZAP\TVSA\EXP5438\..\..\..\ #
#                            Tools\MSP5438\MSP430F5438.xcl                     #
#                            (-D_LO_ROM_BEG=0x05C00 -D_LO_ROM_END=0x0FF7F      #
#                            -D_HI_ROM_BEG=0x10000 -D_HI_ROM_END=0x45BFF       #
#                            -D_ZIGNV_BEG=0x0CA00 -D_ZIGNV_END=0x0F9FF         #
#                            -cmsp430                                          #
#                            -Z(DATA)DATA16_I,DATA16_Z,DATA16_N,DATA16_HEAP+_D #
#                            ATA16_HEAP_SIZE=1C00-5BFF                         #
#                            -Z(DATA)CSTACK+_STACK_SIZE#                       #
#                            -Z(CODE)INFO=1800-19FF -Z(CODE)INFOA=1980-19FF    #
#                            -Z(CODE)INFOB=1900-197F -Z(CODE)INFOC=1880-18FF   #
#                            -Z(CODE)INFOD=1800-187F                           #
#                            -Z(CODE)CSTART,ISR_CODE=_LO_ROM_BEG-_LO_ROM_END   #
#                            -Z(CODE)ZIGNV_ADDRESS_SPACE=_ZIGNV_BEG-_ZIGNV_END #
#                            -Z(CODE)INTVEC=FF80-FFFF                          #
#                            -Z(CODE)RESET=FFFE-FFFF                           #
#                            -Z(CONST)DATA16_C,DATA16_ID,DIFUNCT=_LO_ROM_BEG-_ #
#                            LO_ROM_END                                        #
#                            -Z(CONST)DATA20_C,DATA20_ID=_LO_ROM_BEG-_LO_ROM_E #
#                            ND                                                #
#                            -Z(CODE)CODE=_LO_ROM_BEG-_LO_ROM_END,_HI_ROM_BEG- #
#                            _HI_ROM_END)                                      #
#                            -f                                                #
#                            "C:\Program Files (x86)\IAR Systems\Embedded Work #
#                            bench 6.4\430\config\multiplier32_loc2.xcl"       #
#                            (-e?Mul8HwLoc2=?Mul8 -e?Mul16HwLoc2=?Mul16        #
#                            -e?Mul16to32uHwLoc2=?Mul16to32u                   #
#                            -e?Mul16to32sHwLoc2=?Mul16to32s                   #
#                            -e?Mul32Hw32Loc2=?Mul32                           #
#                            -e?Mul64Hw32Loc2=_Mul64i                          #
#                            -e?Mul32u32uto64iHw32Loc2=_Mul32u32uto64i         #
#                            -e?Mul32fHwLoc2=_Mul32f                           #
#                            -e_Mul64fHwPtrLoc2=_Mul64fPtr)                    #
#                            -D_STACK_SIZE=200 -rt                             #
#                            "C:\Program Files (x86)\IAR Systems\Embedded Work #
#                            bench 6.4\430\LIB\CLIB\cl430xsf.r43"              #
#                            -e_small_write=_formatted_write                   #
#                            -e_medium_read=_formatted_read                    #
#                            -D_DATA16_HEAP_SIZE=0 -s __program_start          #
#                            -D_DATA20_HEAP_SIZE=50                            #
#                                                                              #
#                           Copyright (C) 1987-2012 IAR Systems AB.            #
################################################################################





                ****************************************
                *                                      *
                *           CROSS REFERENCE            *
                *                                      *
                ****************************************

       Program entry at :           5C00  Relocatable, from module : ?cstart




                ****************************************
                *                                      *
                *            RUNTIME MODEL             *
                *                                      *
                ****************************************

  __SystemLibrary = CLib
  __core          = 430X
  __data_model    = small
  __double_size   = 32
  __pic           = no
  __reg_r4        = free
  __reg_r5        = free
  __rt_version    = 3

                ****************************************
                *                                      *
                *    AUTOMATIC SYMBOL REDIRECTIONS     *
                *                                      *
                ****************************************

                  There are no automatic symbol redirections.



                ****************************************
                *                                      *
                *              MODULE MAP              *
                *                                      *
                ****************************************


  DEFINED ABSOLUTE ENTRIES
    *************************************************************************

  DEFINED ABSOLUTE ENTRIES
  PROGRAM MODULE, NAME : ?ABS_ENTRY_MOD

Absolute parts
           ENTRY                   ADDRESS         REF BY
           =====                   =======         ======
           _DATA20_HEAP_SIZE       0050 
           _DATA16_HEAP_SIZE       0000 
           _STACK_SIZE             0200 
           _ZIGNV_END              F9FF 
           _ZIGNV_BEG              CA00 
           _HI_ROM_END             00045BFF 
           _HI_ROM_BEG             00010000 
           _LO_ROM_END             FF7F 
           _LO_ROM_BEG             5C00 
    *************************************************************************

  FILE NAME : C:\Users\student\Documents\GitHub\MHMS\ZAP-MSP430-2.5.1\Projects\zstack\ZAP\TVSA\EXP5438\Routinator\Obj\MSP430FlashUtil.r43
  PROGRAM MODULE, NAME : MSP430FlashUtil

  SEGMENTS IN THE MODULE
  ======================
DATA16_AN
  Relative segment, address: 0140 - 0141 (0x2 bytes), align: 0
  Segment part 1. ROOT.       Intra module refs:   flashErasePage
                                                   flashWrite
           ENTRY                   ADDRESS         REF BY
           =====                   =======         ======
           _A_FCTL1_L              0140 
           LOCAL                   ADDRESS         
           =====                   =======         
           FCTL1                   0140 
           FCTL1_H                 0141 
           FCTL1_L                 0140 
    -------------------------------------------------------------------------
DATA16_AN
  Relative segment, address: 0144 - 0145 (0x2 bytes), align: 0
  Segment part 2. ROOT.       Intra module refs:   flashErasePage
                                                   flashWrite
                                                   initFlash
           ENTRY                   ADDRESS         REF BY
           =====                   =======         ======
           _A_FCTL3_L              0144 
           LOCAL                   ADDRESS         
           =====                   =======         
           FCTL3                   0144 
           FCTL3_H                 0145 
           FCTL3_L                 0144 
    -------------------------------------------------------------------------
DATA16_AN
  Relative segment, address: 015C - 015D (0x2 bytes), align: 0
  Segment part 3. ROOT.       Intra module refs:   __low_level_init (hal_startup)
                                                   doneFlash
                                                   halAssertHazardLights (hal_assert)
                                                   initFlash
                                                   main (hal_main)
           ENTRY                   ADDRESS         REF BY
           =====                   =======         ======
           _A_WDTCTL_L             015C 
           LOCAL                   ADDRESS         
           =====                   =======         
           WDTCTL                  015C 
           WDTCTL_H                015D 
           WDTCTL_L                015C 
    -------------------------------------------------------------------------
DATA16_Z
  Relative segment, address: 2C34 - 2C34 (0x1 bytes), align: 0
  Segment part 5.             Intra module refs:   doneFlash
                                                   initFlash
           LOCAL                   ADDRESS         
           =====                   =======         
           s_savWDT                2C34 
    -------------------------------------------------------------------------
DATA16_Z
  Relative segment, address: 1C90 - 1C91 (0x2 bytes), align: 1
  Segment part 6.             Intra module refs:   doneFlash
                                                   initFlash
           LOCAL                   ADDRESS         
           =====                   =======         
           fuIntState              1C90 
    -------------------------------------------------------------------------
CODE
  Relative segment, address: 67C8 - 67EF (0x28 bytes), align: 1
  Segment part 8.             Intra module refs:   flashErasePage
                                                   flashWrite
           LOCAL                   ADDRESS         
           =====                   =======         
           initFlash               67C8 
               CSTACK = 00000000 ( 00000004 )
    -------------------------------------------------------------------------
CODE
  Relative segment, address: 67F0 - 6801 (0x12 bytes), align: 1
  Segment part 7.             Intra module refs:   flashErasePage
                                                   flashWrite
           LOCAL                   ADDRESS         
           =====                   =======         
           doneFlash               67F0 
               CSTACK = 00000000 ( 00000004 )
    -------------------------------------------------------------------------
CODE
  Relative segment, address: 6802 - 681D (0x1c bytes), align: 1
  Segment part 10.
           ENTRY                   ADDRESS         REF BY
           =====                   =======         ======
           flashErasePage          6802            erasePage (OSAL_Nv)
               calls direct
               CSTACK = 00000000 ( 00000004 )
    -------------------------------------------------------------------------
CODE
  Relative segment, address: 681E - 682B (0xe bytes), align: 1
  Segment part 11.            Intra module refs:   flashErasePage
                                                   flashWrite
           LOCAL                   ADDRESS         
           =====                   =======         
           ?Subroutine0            681E 
    -------------------------------------------------------------------------
CODE
  Relative segment, address: 682C - 685B (0x30 bytes), align: 1
  Segment part 9.
           ENTRY                   ADDRESS         REF BY
           =====                   =======         ======
           flashWrite              682C            compactPage (OSAL_Nv)
                                                   setItem (OSAL_Nv)
                                                   setPageUse (OSAL_Nv)
                                                   writeItem (OSAL_Nv)
                                                   xferBuf (OSAL_Nv)
               calls direct
               CSTACK = 00000000 ( 00000006 )

    *************************************************************************

  FILE NAME : C:\Users\student\Documents\GitHub\MHMS\ZAP-MSP430-2.5.1\Projects\zstack\ZAP\TVSA\EXP5438\Routinator\Obj\OSAL.r43
  PROGRAM MODULE, NAME : OSAL

  SEGMENTS IN THE MODULE
  ======================
DATA16_Z
  Relative segment, address: 1C92 - 1C93 (0x2 bytes), align: 1
  Segment part 6.             Intra module refs:   osal_init_system
                                                   osal_msg_find
                                                   osal_msg_receive
                                                   osal_msg_send
           ENTRY                   ADDRESS         REF BY
           =====                   =======         ======
           osal_qHead              1C92 
    -------------------------------------------------------------------------
DATA16_I
  Relative segment, address: 1C12 - 1C12 (0x1 bytes), align: 0
  Segment part 7.             Intra module refs:   osal_run_system
           LOCAL                   ADDRESS         
           =====                   =======         
           activeTaskID            1C12 
    -------------------------------------------------------------------------
CODE
  Relative segment, address: 685C - 685F (0x4 bytes), align: 1
  Segment part 53.
           ENTRY                   ADDRESS         REF BY
           =====                   =======         ======
           osal_strlen             685C            HalLcdWriteString (hal_lcd)
                                                   HalLcdWriteStringValue (hal_lcd)
               calls direct
               CSTACK = 00000000 ( 00000004 )
    -------------------------------------------------------------------------
CODE
  Relative segment, address: 6860 - 6871 (0x12 bytes), align: 1
  Segment part 50.
           ENTRY                   ADDRESS         REF BY
           =====                   =======         ======
           osal_memcpy             6860            AF_DataRequest (zap_af)
                                                   HalLcdWriteString (hal_lcd)
                                                   HalLcdWriteStringValue (hal_lcd)
                                                   ZDO_SendMsgCBs (zap_zdo)
                                                   afIncMsgPktParse (zap_af)
                                                   afRecv (zap_af)
                                                   pulseDataRx (tvsa)
                                                   pulseTestingDataRx (tvsa)
                                                   sAddrExtCpy (saddr)
                                                   sapiReq (zap_sapi)
                                                   zapDisInfo (zap_app)
                                                   zapPhySpiPoll (zap_phy)
                                                   zapSysReq (zap_sys)
                                                   zapUtilReq (zap_util)
                                                   zb_GetDeviceInfo (zap_sapi)
               CSTACK = 00000000 ( 00000004 )
    -------------------------------------------------------------------------
CODE
  Relative segment, address: 6872 - 6887 (0x16 bytes), align: 1
  Segment part 49.
           ENTRY                   ADDRESS         REF BY
           =====                   =======         ======
           osal_memcmp             6872            zapDisInfo (zap_app)
                                                   zapSync (zap_app)
               CSTACK = 00000000 ( 00000004 )
    -------------------------------------------------------------------------
CODE
  Relative segment, address: 6888 - 688D (0x6 bytes), align: 1
  Segment part 48.
           ENTRY                   ADDRESS         REF BY
           =====                   =======         ======
           osal_memset             6888            ?Subroutine2 (zap_phy)
                                                   osalInitTasks (OSAL_TVSA)
                                                   zapSync (zap_app)
                                                   zapUtilReq (zap_util)
                                                   zb_GetDeviceInfo (zap_sapi)
               calls direct
               CSTACK = 00000000 ( 00000004 )
    -------------------------------------------------------------------------
CODE
  Relative segment, address: 688E - 69E7 (0x15a bytes), align: 1
  Segment part 38.
           ENTRY                   ADDRESS         REF BY
           =====                   =======         ======
           _ltoa                   688E            ?Subroutine0 (hal_lcd)
                                                   HalLcdWriteValue (hal_lcd)
               calls direct
               CSTACK = 00000000 ( 00000032 )
    -------------------------------------------------------------------------
CODE
  Relative segment, address: 69E8 - 69E9 (0x2 bytes), align: 1
  Segment part 39.            Intra module refs:   _ltoa
           LOCAL                   ADDRESS         
           =====                   =======         
           ?Subroutine10           69E8 
    -------------------------------------------------------------------------
CODE
  Relative segment, address: 69EA - 69EF (0x6 bytes), align: 1
  Segment part 40.            Intra module refs:   ?Subroutine10
                                                   _ltoa
    -------------------------------------------------------------------------
CODE
  Relative segment, address: 69F0 - 69FD (0xe bytes), align: 1
  Segment part 41.            Intra module refs:   _ltoa
           LOCAL                   ADDRESS         
           =====                   =======         
           ?Subroutine8            69F0 
    -------------------------------------------------------------------------
CODE
  Relative segment, address: 69FE - 6A05 (0x8 bytes), align: 1
  Segment part 42.            Intra module refs:   _ltoa
           LOCAL                   ADDRESS         
           =====                   =======         
           ?Subroutine7            69FE 
    -------------------------------------------------------------------------
CODE
  Relative segment, address: 6A06 - 6A0F (0xa bytes), align: 1
  Segment part 43.            Intra module refs:   _ltoa
           LOCAL                   ADDRESS         
           =====                   =======         
           ?Subroutine6            6A06 
    -------------------------------------------------------------------------
CODE
  Relative segment, address: 6A10 - 6A3B (0x2c bytes), align: 1
  Segment part 36.
           ENTRY                   ADDRESS         REF BY
           =====                   =======         ======
           osal_msg_allocate       6A10            OnBoard_SendKeys (hal_board)
                                                   ZDO_SendMsgCBs (zap_zdo)
                                                   ZDO_UpdateNwkStatus (zap_zdo)
                                                   afCnf (zap_af)
                                                   afRecv (zap_af)
                                                   zapPhySpiPoll (zap_phy)
               calls direct
               CSTACK = 00000000 ( 00000006 )
    -------------------------------------------------------------------------
CODE
  Relative segment, address: 6A3C - 6A5B (0x20 bytes), align: 1
  Segment part 34.            Intra module refs:   osal_msg_send
           ENTRY                   ADDRESS         REF BY
           =====                   =======         ======
           osal_msg_deallocate     6A3C            Hal_ProcessEvent (hal_drivers)
                                                   pulseAppEvt (tvsa)
                                                   zapEvt (zap_app)
               calls direct
               CSTACK = 00000000 ( 00000004 )
    -------------------------------------------------------------------------
CODE
  Relative segment, address: 6A5C - 6AA9 (0x4e bytes), align: 1
  Segment part 35.
           ENTRY                   ADDRESS         REF BY
           =====                   =======         ======
           osal_msg_send           6A5C            ?Subroutine2 (zap_af)
                                                   OnBoard_SendKeys (hal_board)
                                                   ZDO_SendMsgCBs (zap_zdo)
                                                   ZDO_UpdateNwkStatus (zap_zdo)
                                                   zapPhySpiPoll (zap_phy)
               calls direct
               CSTACK = 00000000 ( 00000006 )
    -------------------------------------------------------------------------
CODE
  Relative segment, address: 6AAA - 6B01 (0x58 bytes), align: 1
  Segment part 33.
           ENTRY                   ADDRESS         REF BY
           =====                   =======         ======
           osal_msg_receive        6AAA            Hal_ProcessEvent (hal_drivers)
                                                   pulseAppEvt (tvsa)
                                                   zapEvt (zap_app)
               calls direct
               CSTACK = 00000000 ( 0000000C )
    -------------------------------------------------------------------------
CODE
  Relative segment, address: 6B02 - 6B07 (0x6 bytes), align: 1
  Segment part 30.            Intra module refs:   osal_msg_find
           LOCAL                   ADDRESS         
           =====                   =======         
           ?Subroutine2            6B02 
    -------------------------------------------------------------------------
CODE
  Relative segment, address: 6B08 - 6B2F (0x28 bytes), align: 1
  Segment part 31.            Intra module refs:   osal_msg_send
           ENTRY                   ADDRESS         REF BY
           =====                   =======         ======
           osal_msg_enqueue        6B08 
               CSTACK = 00000000 ( 00000004 )
    -------------------------------------------------------------------------
CODE
  Relative segment, address: 6B30 - 6B53 (0x24 bytes), align: 1
  Segment part 32.
           ENTRY                   ADDRESS         REF BY
           =====                   =======         ======
           osal_msg_find           6B30            ZDO_UpdateNwkStatus (zap_zdo)
               CSTACK = 00000000 ( 00000004 )
    -------------------------------------------------------------------------
CODE
  Relative segment, address: 6B54 - 6B7B (0x28 bytes), align: 1
  Segment part 27.            Intra module refs:   osal_msg_receive
           ENTRY                   ADDRESS         REF BY
           =====                   =======         ======
           osal_msg_extract        6B54 
               CSTACK = 00000000 ( 00000006 )
    -------------------------------------------------------------------------
CODE
  Relative segment, address: 6B7C - 6B97 (0x1c bytes), align: 1
  Segment part 22.            Intra module refs:   osal_msg_receive
           ENTRY                   ADDRESS         REF BY
           =====                   =======         ======
           osal_clear_event        6B7C 
               CSTACK = 00000000 ( 00000004 )
    -------------------------------------------------------------------------
CODE
  Relative segment, address: 6B98 - 6B9D (0x6 bytes), align: 1
  Segment part 23.            Intra module refs:   osal_clear_event
                                                   osal_set_event
           LOCAL                   ADDRESS         
           =====                   =======         
           ?Subroutine4            6B98 
    -------------------------------------------------------------------------
CODE
  Relative segment, address: 6B9E - 6BA3 (0x6 bytes), align: 1
  Segment part 24.            Intra module refs:   osal_clear_event
                                                   osal_set_event
           LOCAL                   ADDRESS         
           =====                   =======         
           ?Subroutine1            6B9E 
    -------------------------------------------------------------------------
CODE
  Relative segment, address: 6BA4 - 6BC3 (0x20 bytes), align: 1
  Segment part 25.            Intra module refs:   osal_msg_receive
                                                   osal_msg_send
           ENTRY                   ADDRESS         REF BY
           =====                   =======         ======
           osal_set_event          6BA4            ?Subroutine1 (zap_app)
                                                   ?Subroutine3 (tvsa)
                                                   ?Subroutine6 (tvsa)
                                                   HalKeyConfig (hal_key)
                                                   HalLedBlink (hal_led)
                                                   Segment part 29 (zap_zdo)
                                                   Segment part 67 (tvsa)
                                                   osalTimerUpdate (OSAL_Timers)
                                                   pulseDataReq (tvsa)
                                                   pulseNodeCheckIn (tvsa)
                                                   pulseZdoStateChange (tvsa)
                                                   zapAfSync (zap_af)
                                                   zapGotSync (zap_app)
                                                   zapKeys (zap_app)
               CSTACK = 00000000 ( 00000004 )
    -------------------------------------------------------------------------
CODE
  Relative segment, address: 6BC4 - 6BCF (0xc bytes), align: 1
  Segment part 18.
           ENTRY                   ADDRESS         REF BY
           =====                   =======         ======
           osal_int_disable        6BC4            main (hal_main)
               CSTACK = 00000000 ( 00000004 )
    -------------------------------------------------------------------------
CODE
  Relative segment, address: 6BD0 - 6BD5 (0x6 bytes), align: 1
  Segment part 19.            Intra module refs:   osal_int_disable
                                                   osal_int_enable
           LOCAL                   ADDRESS         
           =====                   =======         
           ?Subroutine3            6BD0 
    -------------------------------------------------------------------------
CODE
  Relative segment, address: 6BD6 - 6BE3 (0xe bytes), align: 1
  Segment part 20.
           ENTRY                   ADDRESS         REF BY
           =====                   =======         ======
           osal_int_enable         6BD6            main (hal_main)
               CSTACK = 00000000 ( 00000004 )
    -------------------------------------------------------------------------
CODE
  Relative segment, address: 6BE4 - 6BFF (0x1c bytes), align: 1
  Segment part 17.
           ENTRY                   ADDRESS         REF BY
           =====                   =======         ======
           osal_init_system        6BE4            main (hal_main)
               calls direct
               CSTACK = 00000000 ( 00000004 )
    -------------------------------------------------------------------------
CODE
  Relative segment, address: 6C00 - 6C07 (0x8 bytes), align: 1
  Segment part 16.
           ENTRY                   ADDRESS         REF BY
           =====                   =======         ======
           osal_start_system       6C00            main (hal_main)
               calls direct
               CSTACK = 00000000 ( 00000004 )
    -------------------------------------------------------------------------
CODE
  Relative segment, address: 6C08 - 6C79 (0x72 bytes), align: 1
  Segment part 15.            Intra module refs:   osal_start_system
           ENTRY                   ADDRESS         REF BY
           =====                   =======         ======
           osal_run_system         6C08 
               calls direct and indirect
               CSTACK = 00000000 ( 00000008 )
    -------------------------------------------------------------------------
DATA16_ID
  Relative segment, address: 674A - 674A (0x1 bytes), align: 0
  Segment part 8.             Intra module refs:   activeTaskID
    -------------------------------------------------------------------------
DATA16_C
  Relative segment, address: 65AC - 65AD (0x2 bytes), align: 0
  Segment part 5.             Intra module refs:   ?Subroutine8
                                                   _ltoa

    *************************************************************************

  FILE NAME : C:\Users\student\Documents\GitHub\MHMS\ZAP-MSP430-2.5.1\Projects\zstack\ZAP\TVSA\EXP5438\Routinator\Obj\OSAL_Memory.r43
  PROGRAM MODULE, NAME : OSAL_Memory

  SEGMENTS IN THE MODULE
  ======================
DATA16_N
  Relative segment, address: 2CFA - 3CF9 (0x1000 bytes), align: 1
  Segment part 2.             Intra module refs:   osal_mem_alloc
                                                   osal_mem_free
                                                   osal_mem_init
           LOCAL                   ADDRESS         
           =====                   =======         
           theHeap                 2CFA 
    -------------------------------------------------------------------------
DATA16_N
  Relative segment, address: 3CFA - 3CFB (0x2 bytes), align: 1
  Segment part 3.             Intra module refs:   osal_mem_alloc
                                                   osal_mem_free
                                                   osal_mem_init
                                                   osal_mem_kick
           LOCAL                   ADDRESS         
           =====                   =======         
           ff1                     3CFA 
    -------------------------------------------------------------------------
DATA16_Z
  Relative segment, address: 2C35 - 2C35 (0x1 bytes), align: 0
  Segment part 4.             Intra module refs:   osal_mem_alloc
                                                   osal_mem_kick
           LOCAL                   ADDRESS         
           =====                   =======         
           osalMemStat             2C35 
    -------------------------------------------------------------------------
CODE
  Relative segment, address: 6C7A - 6C97 (0x1e bytes), align: 1
  Segment part 8.
           ENTRY                   ADDRESS         REF BY
           =====                   =======         ======
           osal_mem_init           6C7A            osal_init_system (OSAL)
               CSTACK = 00000000 ( 00000004 )
    -------------------------------------------------------------------------
CODE
  Relative segment, address: 6C98 - 6CC7 (0x30 bytes), align: 1
  Segment part 7.
           ENTRY                   ADDRESS         REF BY
           =====                   =======         ======
           osal_mem_kick           6C98            osal_init_system (OSAL)
               calls direct
               CSTACK = 00000000 ( 00000008 )
    -------------------------------------------------------------------------
CODE
  Relative segment, address: 6CC8 - 6D85 (0xbe bytes), align: 1
  Segment part 6.             Intra module refs:   osal_mem_kick
           ENTRY                   ADDRESS         REF BY
           =====                   =======         ======
           osal_mem_alloc          6CC8            HalLcdWriteString (hal_lcd)
                                                   HalUARTOpen (hal_uart)
                                                   afRegisterExtended (zap_af)
                                                   osalAddTimer (OSAL_Timers)
                                                   osalInitTasks (OSAL_TVSA)
                                                   osal_msg_allocate (OSAL)
                                                   zap_msg_allocate (zap_app)
               calls direct
               CSTACK = 00000000 ( 0000000C )
    -------------------------------------------------------------------------
CODE
  Relative segment, address: 6D86 - 6DC1 (0x3c bytes), align: 1
  Segment part 5.             Intra module refs:   osal_mem_kick
           ENTRY                   ADDRESS         REF BY
           =====                   =======         ======
           osal_mem_free           6D86            HalLcdWriteString (hal_lcd)
                                                   osalTimerUpdate (OSAL_Timers)
                                                   osal_msg_deallocate (OSAL)
                                                   zap_msg_deallocate (zap_app)
               calls direct
               CSTACK = 00000000 ( 00000006 )

    *************************************************************************

  FILE NAME : C:\Users\student\Documents\GitHub\MHMS\ZAP-MSP430-2.5.1\Projects\zstack\ZAP\TVSA\EXP5438\Routinator\Obj\OSAL_Nv.r43
  PROGRAM MODULE, NAME : OSAL_Nv

  SEGMENTS IN THE MODULE
  ======================
DATA16_C
  Relative segment, address: 5D06 - 5D0B (0x6 bytes), align: 1
  Segment part 2.             Intra module refs:   hotItem
           LOCAL                   ADDRESS         
           =====                   =======         
           hotIds                  5D06 
    -------------------------------------------------------------------------
ZIGNV_ADDRESS_SPACE
  Relative segment, address: CA00 - F9FF (0x3000 bytes), align: 0
  Segment part 3.             Intra module refs:   pgOff
           ENTRY                   ADDRESS         REF BY
           =====                   =======         ======
           _nvBuf                  CA00 
    -------------------------------------------------------------------------
DATA16_Z
  Relative segment, address: 1C94 - 1CAB (0x18 bytes), align: 1
  Segment part 4.             Intra module refs:   compactPage
                                                   erasePage
                                                   initPage
                                                   writeItem
           LOCAL                   ADDRESS         
           =====                   =======         
           pgOff                   1C94 
    -------------------------------------------------------------------------
DATA16_Z
  Relative segment, address: 1CAC - 1CC3 (0x18 bytes), align: 1
  Segment part 5.             Intra module refs:   erasePage
                                                   initNV
                                                   initPage
                                                   setItem
                                                   writeItem
           LOCAL                   ADDRESS         
           =====                   =======         
           pgLost                  1CAC 
    -------------------------------------------------------------------------
DATA16_Z
  Relative segment, address: 2C36 - 2C36 (0x1 bytes), align: 0
  Segment part 6.             Intra module refs:   ?Subroutine11
                                                   compactPage
                                                   initNV
           LOCAL                   ADDRESS         
           =====                   =======         
           pgRes                   2C36 
    -------------------------------------------------------------------------
DATA16_Z
  Relative segment, address: 2C37 - 2C39 (0x3 bytes), align: 0
  Segment part 7.             Intra module refs:   hotItemUpdate
           LOCAL                   ADDRESS         
           =====                   =======         
           hotPg                   2C37 
    -------------------------------------------------------------------------
DATA16_Z
  Relative segment, address: 1CC4 - 1CC9 (0x6 bytes), align: 1
  Segment part 8.             Intra module refs:   hotItemUpdate
           LOCAL                   ADDRESS         
           =====                   =======         
           hotOff                  1CC4 
    -------------------------------------------------------------------------
CODE
  Relative segment, address: 6DC2 - 6E13 (0x52 bytes), align: 1
  Segment part 10.            Intra module refs:   Segment part 23
                                                   compactPage
                                                   initPage
           LOCAL                   ADDRESS         
           =====                   =======         
           setItem                 6DC2 
               calls direct
               CSTACK = 00000000 ( 00000014 )
    -------------------------------------------------------------------------
CODE
  Relative segment, address: 6E14 - 6E19 (0x6 bytes), align: 1
  Segment part 11.            Intra module refs:   initNV
                                                   setItem
           LOCAL                   ADDRESS         
           =====                   =======         
           ?Subroutine0            6E14 
    -------------------------------------------------------------------------
CODE
  Relative segment, address: 6E1A - 6E39 (0x20 bytes), align: 1
  Segment part 12.            Intra module refs:   ?Subroutine5
                                                   compactPage
                                                   writeItem
           LOCAL                   ADDRESS         
           =====                   =======         
           calcChkF                6E1A 
               CSTACK = 00000000 ( 00000004 )
    -------------------------------------------------------------------------
CODE
  Relative segment, address: 6E3A - 6EFB (0xc2 bytes), align: 1
  Segment part 13.            Intra module refs:   findItem
                                                   initNV
           LOCAL                   ADDRESS         
           =====                   =======         
           initPage                6E3A 
               calls direct
               CSTACK = 00000000 ( 0000001A )
    -------------------------------------------------------------------------
CODE
  Relative segment, address: 6EFC - 6F01 (0x6 bytes), align: 1
  Segment part 14.            Intra module refs:   compactPage
                                                   initPage
           LOCAL                   ADDRESS         
           =====                   =======         
           ?Subroutine4            6EFC 
    -------------------------------------------------------------------------
CODE
  Relative segment, address: 6F02 - 6F03 (0x2 bytes), align: 1
  Segment part 15.            Intra module refs:   ?Subroutine4
                                                   writeItem
    -------------------------------------------------------------------------
CODE
  Relative segment, address: 6F04 - 6F09 (0x6 bytes), align: 1
  Segment part 16.            Intra module refs:   Segment part 15
                                                   writeItem
    -------------------------------------------------------------------------
CODE
  Relative segment, address: 6F0A - 6F43 (0x3a bytes), align: 1
  Segment part 17.            Intra module refs:   initPage
           LOCAL                   ADDRESS         
           =====                   =======         
           findItem                6F0A 
               calls direct
               CSTACK = 00000000 ( 0000000C )
    -------------------------------------------------------------------------
CODE
  Relative segment, address: 6F44 - 6F5B (0x18 bytes), align: 1
  Segment part 18.            Intra module refs:   ?Subroutine9
           LOCAL                   ADDRESS         
           =====                   =======         
           hotItem                 6F44 
               CSTACK = 00000000 ( 00000004 )
    -------------------------------------------------------------------------
CODE
  Relative segment, address: 6F5C - 6F63 (0x8 bytes), align: 1
  Segment part 23.            Intra module refs:   initPage
    -------------------------------------------------------------------------
CODE
  Relative segment, address: 6F64 - 6F6F (0xc bytes), align: 1
  Segment part 27.            Intra module refs:   xferBuf
    -------------------------------------------------------------------------
CODE
  Relative segment, address: 6F70 - 6F79 (0xa bytes), align: 1
  Segment part 28.            Intra module refs:   hotItemUpdate
           LOCAL                   ADDRESS         
           =====                   =======         
           ?Subroutine9            6F70 
    -------------------------------------------------------------------------
CODE
  Relative segment, address: 6F7A - 6F9F (0x26 bytes), align: 1
  Segment part 30.            Intra module refs:   ?Subroutine11
                                                   initNV
           LOCAL                   ADDRESS         
           =====                   =======         
           setPageUse              6F7A 
               calls direct
               CSTACK = 00000000 ( 0000000C )
    -------------------------------------------------------------------------
CODE
  Relative segment, address: 6FA0 - 6FCB (0x2c bytes), align: 1
  Segment part 31.            Intra module refs:   ?Subroutine11
                                                   compactPage
                                                   initNV
           LOCAL                   ADDRESS         
           =====                   =======         
           erasePage               6FA0 
               calls direct
               CSTACK = 00000000 ( 00000008 )
    -------------------------------------------------------------------------
CODE
  Relative segment, address: 6FCC - 6FE7 (0x1c bytes), align: 1
  Segment part 32.            Intra module refs:   compactPage
                                                   writeItem
           LOCAL                   ADDRESS         
           =====                   =======         
           hotItemUpdate           6FCC 
               calls direct
               CSTACK = 00000000 ( 00000006 )
    -------------------------------------------------------------------------
CODE
  Relative segment, address: 6FE8 - 7009 (0x22 bytes), align: 1
  Segment part 33.            Intra module refs:   compactPage
           LOCAL                   ADDRESS         
           =====                   =======         
           xferBuf                 6FE8 
               calls direct
               CSTACK = 00000000 ( 00000008 )
    -------------------------------------------------------------------------
CODE
  Relative segment, address: 700A - 7111 (0x108 bytes), align: 1
  Segment part 34.            Intra module refs:   compactPage
           LOCAL                   ADDRESS         
           =====                   =======         
           writeItem               700A 
               calls direct
               CSTACK = 00000000 ( 00000022 )
    -------------------------------------------------------------------------
CODE
  Relative segment, address: 7112 - 720B (0xfa bytes), align: 1
  Segment part 35.            Intra module refs:   initNV
           LOCAL                   ADDRESS         
           =====                   =======         
           compactPage             7112 
               calls direct
               CSTACK = 00000000 ( 00000020 )
    -------------------------------------------------------------------------
CODE
  Relative segment, address: 720C - 721B (0x10 bytes), align: 1
  Segment part 36.            Intra module refs:   compactPage
                                                   initPage
           LOCAL                   ADDRESS         
           =====                   =======         
           ?Subroutine7            720C 
    -------------------------------------------------------------------------
CODE
  Relative segment, address: 721C - 7229 (0xe bytes), align: 1
  Segment part 37.            Intra module refs:   compactPage
                                                   initPage
           LOCAL                   ADDRESS         
           =====                   =======         
           ?Subroutine5            721C 
    -------------------------------------------------------------------------
CODE
  Relative segment, address: 722A - 722B (0x2 bytes), align: 1
  Segment part 38.            Intra module refs:   readHdr
                                                   setPageUse
           LOCAL                   ADDRESS         
           =====                   =======         
           ?Subroutine2            722A 
    -------------------------------------------------------------------------
CODE
  Relative segment, address: 722C - 722D (0x2 bytes), align: 1
  Segment part 39.            Intra module refs:   ?Subroutine2
                                                   compactPage
                                                   xferBuf
    -------------------------------------------------------------------------
CODE
  Relative segment, address: 722E - 7237 (0xa bytes), align: 1
  Segment part 40.            Intra module refs:   Segment part 39
                                                   setItem
    -------------------------------------------------------------------------
CODE
  Relative segment, address: 7238 - 7247 (0x10 bytes), align: 1
  Segment part 42.            Intra module refs:   compactPage
           LOCAL                   ADDRESS         
           =====                   =======         
           ?Subroutine11           7238 
    -------------------------------------------------------------------------
CODE
  Relative segment, address: 7248 - 732B (0xe4 bytes), align: 1
  Segment part 45.            Intra module refs:   osal_nv_init
           LOCAL                   ADDRESS         
           =====                   =======         
           initNV                  7248 
               calls direct
               CSTACK = 00000000 ( 00000014 )
    -------------------------------------------------------------------------
CODE
  Relative segment, address: 732C - 733F (0x14 bytes), align: 1
  Segment part 9.             Intra module refs:   Segment part 16
                                                   compactPage
                                                   initNV
                                                   setItem
           LOCAL                   ADDRESS         
           =====                   =======         
           readHdr                 732C 
               CSTACK = 00000000 ( 00000004 )
    -------------------------------------------------------------------------
CODE
  Relative segment, address: 7340 - 7343 (0x4 bytes), align: 1
  Segment part 46.
           ENTRY                   ADDRESS         REF BY
           =====                   =======         ======
           osal_nv_init            7340            main (hal_main)
               calls direct
               CSTACK = 00000000 ( 00000004 )

    *************************************************************************

  FILE NAME : C:\Users\student\Documents\GitHub\MHMS\ZAP-MSP430-2.5.1\Projects\zstack\ZAP\TVSA\EXP5438\Routinator\Obj\OSAL_PwrMgr.r43
  PROGRAM MODULE, NAME : OSAL_PwrMgr

  SEGMENTS IN THE MODULE
  ======================
DATA16_Z
  Relative segment, address: 1CCA - 1CD1 (0x8 bytes), align: 1
  Segment part 2.             Intra module refs:   osal_pwrmgr_init
           ENTRY                   ADDRESS         REF BY
           =====                   =======         ======
           pwrmgr_attribute        1CCA 
    -------------------------------------------------------------------------
CODE
  Relative segment, address: 7344 - 734D (0xa bytes), align: 1
  Segment part 5.
           ENTRY                   ADDRESS         REF BY
           =====                   =======         ======
           osal_pwrmgr_init        7344            osal_init_system (OSAL)
               CSTACK = 00000000 ( 00000004 )

    *************************************************************************

  FILE NAME : C:\Users\student\Documents\GitHub\MHMS\ZAP-MSP430-2.5.1\Projects\zstack\ZAP\TVSA\EXP5438\Routinator\Obj\OSAL_TVSA.r43
  PROGRAM MODULE, NAME : OSAL_TVSA

  SEGMENTS IN THE MODULE
  ======================
DATA16_C
  Relative segment, address: 5D0C - 5D17 (0xc bytes), align: 1
  Segment part 2.
           ENTRY                   ADDRESS         REF BY
           =====                   =======         ======
           tasksArr                5D0C            osal_run_system (OSAL)
    -------------------------------------------------------------------------
DATA16_C
  Relative segment, address: 65AE - 65AE (0x1 bytes), align: 0
  Segment part 3.
           ENTRY                   ADDRESS         REF BY
           =====                   =======         ======
           tasksCnt                65AE            osal_clear_event (OSAL)
                                                   osal_msg_send (OSAL)
                                                   osal_run_system (OSAL)
                                                   osal_set_event (OSAL)
    -------------------------------------------------------------------------
DATA16_Z
  Relative segment, address: 1CD2 - 1CD3 (0x2 bytes), align: 1
  Segment part 4.             Intra module refs:   osalInitTasks
           ENTRY                   ADDRESS         REF BY
           =====                   =======         ======
           tasksEvents             1CD2            osal_clear_event (OSAL)
                                                   osal_run_system (OSAL)
                                                   osal_set_event (OSAL)
    -------------------------------------------------------------------------
CODE
  Relative segment, address: 734E - 7375 (0x28 bytes), align: 1
  Segment part 5.
           ENTRY                   ADDRESS         REF BY
           =====                   =======         ======
           osalInitTasks           734E            osal_init_system (OSAL)
               calls direct
               CSTACK = 00000000 ( 00000004 )

    *************************************************************************

  FILE NAME : C:\Users\student\Documents\GitHub\MHMS\ZAP-MSP430-2.5.1\Projects\zstack\ZAP\TVSA\EXP5438\Routinator\Obj\OSAL_Timers.r43
  PROGRAM MODULE, NAME : OSAL_Timers

  SEGMENTS IN THE MODULE
  ======================
DATA16_Z
  Relative segment, address: 1CD4 - 1CD5 (0x2 bytes), align: 1
  Segment part 2.             Intra module refs:   osalAddTimer
                                                   osalFindTimer
                                                   osalTimerUpdate
           ENTRY                   ADDRESS         REF BY
           =====                   =======         ======
           timerHead               1CD4 
    -------------------------------------------------------------------------
DATA16_Z
  Relative segment, address: 1CD6 - 1CD9 (0x4 bytes), align: 1
  Segment part 3.             Intra module refs:   osalTimerInit
                                                   osalTimerUpdate
                                                   osal_GetSystemClock
           LOCAL                   ADDRESS         
           =====                   =======         
           osal_systemClock        1CD6 
    -------------------------------------------------------------------------
CODE
  Relative segment, address: 7376 - 737F (0xa bytes), align: 1
  Segment part 14.
           ENTRY                   ADDRESS         REF BY
           =====                   =======         ======
           osalTimerInit           7376            osal_init_system (OSAL)
               CSTACK = 00000000 ( 00000004 )
    -------------------------------------------------------------------------
CODE
  Relative segment, address: 7380 - 73D7 (0x58 bytes), align: 1
  Segment part 11.            Intra module refs:   osal_start_timerEx
           ENTRY                   ADDRESS         REF BY
           =====                   =======         ======
           osalAddTimer            7380 
               calls direct
               CSTACK = 00000000 ( 0000000C )
    -------------------------------------------------------------------------
CODE
  Relative segment, address: 73D8 - 73F3 (0x1c bytes), align: 1
  Segment part 7.             Intra module refs:   osalAddTimer
                                                   osal_stop_timerEx
           ENTRY                   ADDRESS         REF BY
           =====                   =======         ======
           osalFindTimer           73D8 
               CSTACK = 00000000 ( 00000004 )
    -------------------------------------------------------------------------
CODE
  Relative segment, address: 73F4 - 73FD (0xa bytes), align: 1
  Segment part 9.             Intra module refs:   osal_stop_timerEx
           ENTRY                   ADDRESS         REF BY
           =====                   =======         ======
           osalDeleteTimer         73F4 
               CSTACK = 00000000 ( 00000004 )
    -------------------------------------------------------------------------
CODE
  Relative segment, address: 73FE - 7419 (0x1c bytes), align: 1
  Segment part 13.
           ENTRY                   ADDRESS         REF BY
           =====                   =======         ======
           osal_start_timerEx      73FE            ?Subroutine1 (zap_app)
                                                   ?Subroutine13 (zap_zdo)
                                                   HalLedUpdate (hal_led)
                                                   Hal_ProcessEvent (hal_drivers)
                                                   TestPayloadTx (tvsa)
                                                   halBoardPort1Isr (hal_key)
                                                   pulseAnnce (tvsa)
                                                   pulseDataCalc (tvsa)
                                                   pulseDataReq (tvsa)
                                                   pulseNodeCheckIn (tvsa)
                                                   pulseZdoStateChange (tvsa)
                                                   zapAfSync (zap_af)
                                                   zapGotSync (zap_app)
               calls direct
               CSTACK = 00000000 ( 00000006 )
    -------------------------------------------------------------------------
CODE
  Relative segment, address: 741A - 743D (0x24 bytes), align: 1
  Segment part 10.
           ENTRY                   ADDRESS         REF BY
           =====                   =======         ======
           osal_stop_timerEx       741A            HalKeyConfig (hal_key)
                                                   HalLedBlink (hal_led)
                                                   TestPayloadTx (tvsa)
                                                   pulseDataReq (tvsa)
                                                   pulseNodeCheckIn (tvsa)
                                                   pulseZdoStateChange (tvsa)
                                                   zapKeys (zap_app)
               calls direct
               CSTACK = 00000000 ( 00000004 )
    -------------------------------------------------------------------------
CODE
  Relative segment, address: 743E - 74E3 (0xa6 bytes), align: 1
  Segment part 5.
           ENTRY                   ADDRESS         REF BY
           =====                   =======         ======
           osalTimerUpdate         743E            osalTimeUpdate (hal_board)
               calls direct
               CSTACK = 00000000 ( 00000010 )
    -------------------------------------------------------------------------
CODE
  Relative segment, address: 74E4 - 74ED (0xa bytes), align: 1
  Segment part 4.
           ENTRY                   ADDRESS         REF BY
           =====                   =======         ======
           osal_GetSystemClock     74E4            HalLedBlink (hal_led)
                                                   HalLedUpdate (hal_led)
                                                   HalUARTPoll (hal_uart)
                                                   Hal_UART_RxProcessEvent (hal_uart)
               CSTACK = 00000000 ( 00000004 )

    *************************************************************************

  FILE NAME : C:\Users\student\Documents\GitHub\MHMS\ZAP-MSP430-2.5.1\Projects\zstack\ZAP\TVSA\EXP5438\Routinator\Obj\hal_adc.r43
  PROGRAM MODULE, NAME : hal_adc

  SEGMENTS IN THE MODULE
  ======================
DATA16_AN
  Relative segment, address: 0700 - 0701 (0x2 bytes), align: 0
  Segment part 1. ROOT.       Intra module refs:   HalAdcRead
           ENTRY                   ADDRESS         REF BY
           =====                   =======         ======
           _A_ADC12CTL0_L          0700 
           LOCAL                   ADDRESS         
           =====                   =======         
           ADC12CTL0               0700 
           ADC12CTL0_H             0701 
           ADC12CTL0_L             0700 
    -------------------------------------------------------------------------
DATA16_AN
  Relative segment, address: 0702 - 0703 (0x2 bytes), align: 0
  Segment part 2. ROOT.       Intra module refs:   HalAdcRead
           ENTRY                   ADDRESS         REF BY
           =====                   =======         ======
           _A_ADC12CTL1_L          0702 
           LOCAL                   ADDRESS         
           =====                   =======         
           ADC12CTL1               0702 
           ADC12CTL1_H             0703 
           ADC12CTL1_L             0702 
    -------------------------------------------------------------------------
DATA16_AN
  Relative segment, address: 0704 - 0705 (0x2 bytes), align: 0
  Segment part 3. ROOT.       Intra module refs:   HalAdcRead
           ENTRY                   ADDRESS         REF BY
           =====                   =======         ======
           _A_ADC12CTL2_L          0704 
           LOCAL                   ADDRESS         
           =====                   =======         
           ADC12CTL2               0704 
           ADC12CTL2_H             0705 
           ADC12CTL2_L             0704 
    -------------------------------------------------------------------------
DATA16_AN
  Relative segment, address: 070A - 070B (0x2 bytes), align: 0
  Segment part 4. ROOT.       Intra module refs:   HalAdcRead
           ENTRY                   ADDRESS         REF BY
           =====                   =======         ======
           _A_ADC12IFG_L           070A 
           LOCAL                   ADDRESS         
           =====                   =======         
           ADC12IFG                070A 
           ADC12IFG_H              070B 
           ADC12IFG_L              070A 
    -------------------------------------------------------------------------
DATA16_AN
  Relative segment, address: 0720 - 0721 (0x2 bytes), align: 0
  Segment part 5. ROOT.       Intra module refs:   HalAdcRead
           ENTRY                   ADDRESS         REF BY
           =====                   =======         ======
           _A_ADC12MEM0_L          0720 
           LOCAL                   ADDRESS         
           =====                   =======         
           ADC12MEM0               0720 
           ADC12MEM0_H             0721 
           ADC12MEM0_L             0720 
    -------------------------------------------------------------------------
DATA16_AN
  Relative segment, address: 0710 - 0710 (0x1 bytes), align: 0
  Segment part 6. ROOT.       Intra module refs:   HalAdcRead
           ENTRY                   ADDRESS         REF BY
           =====                   =======         ======
           ADC12MCTL0              0710 
    -------------------------------------------------------------------------
CODE
  Relative segment, address: 74EE - 74EF (0x2 bytes), align: 1
  Segment part 11.
           ENTRY                   ADDRESS         REF BY
           =====                   =======         ======
           HalAdcInit              74EE            HalDriverInit (hal_drivers)
               CSTACK = 00000000 ( 00000004 )
    -------------------------------------------------------------------------
CODE
  Relative segment, address: 74F0 - 754D (0x5e bytes), align: 1
  Segment part 9.
           ENTRY                   ADDRESS         REF BY
           =====                   =======         ======
           HalAdcRead              74F0            pulseBPM (tvsa)
               CSTACK = 00000000 ( 00000004 )
    -------------------------------------------------------------------------
CODE
  Relative segment, address: 754E - 756D (0x20 bytes), align: 1
  Segment part 10.            Intra module refs:   HalAdcRead
           LOCAL                   ADDRESS         
           =====                   =======         
           ?Subroutine0            754E 

    *************************************************************************

  FILE NAME : C:\Users\student\Documents\GitHub\MHMS\ZAP-MSP430-2.5.1\Projects\zstack\ZAP\TVSA\EXP5438\Routinator\Obj\hal_assert.r43
  PROGRAM MODULE, NAME : hal_assert

  SEGMENTS IN THE MODULE
  ======================
DATA16_AN
  Relative segment, address: 0200 - 0201 (0x2 bytes), align: 0
  Segment part 1. ROOT.       Intra module refs:   HalKeyPoll (hal_key)
                                                   getSRDY1 (zap_phy)
                                                   getSRDY2 (zap_phy)
                                                   halAssertHazardLights
                                                   zapPhySpiPoll (zap_phy)
                                                   zapPhySpiRun (zap_phy)
           ENTRY                   ADDRESS         REF BY
           =====                   =======         ======
           _A_PAIN_L               0200 
           LOCAL                   ADDRESS         
           =====                   =======         
           PAIN                    0200 
           PAIN_H                  0201 
           PAIN_L                  0200 
    -------------------------------------------------------------------------
DATA16_AN
  Relative segment, address: 0202 - 0203 (0x2 bytes), align: 0
  Segment part 2. ROOT.       Intra module refs:   HalKeyConfig (hal_key)
                                                   HalLedOnOff (hal_led)
                                                   getSRDY1 (zap_phy)
                                                   halAssertHazardLights
                                                   main (hal_main)
                                                   quickReset (zap_app)
                                                   spiSREQ (zap_phy)
                                                   zapPhyInit (zap_phy)
                                                   zapPhyReset (zap_phy)
                                                   zapPhySpiInit (zap_phy)
                                                   zapPhySpiPoll (zap_phy)
                                                   zapPhySpiRun (zap_phy)
                                                   zapPhySpiSend (zap_phy)
           ENTRY                   ADDRESS         REF BY
           =====                   =======         ======
           _A_PAOUT_L              0202 
           LOCAL                   ADDRESS         
           =====                   =======         
           PAOUT                   0202 
           PAOUT_H                 0203 
           PAOUT_L                 0202 
    -------------------------------------------------------------------------
DATA16_AN
  Relative segment, address: 0204 - 0205 (0x2 bytes), align: 0
  Segment part 3. ROOT.       Intra module refs:   HalKeyConfig (hal_key)
                                                   halAssertHazardLights
                                                   main (hal_main)
                                                   zapPhyInit (zap_phy)
                                                   zapPhySpiInit (zap_phy)
           ENTRY                   ADDRESS         REF BY
           =====                   =======         ======
           _A_PADIR_L              0204 
           LOCAL                   ADDRESS         
           =====                   =======         
           PADIR                   0204 
           PADIR_H                 0205 
           PADIR_L                 0204 
    -------------------------------------------------------------------------
DATA16_AN
  Relative segment, address: 0262 - 0263 (0x2 bytes), align: 0
  Segment part 4. ROOT.       Intra module refs:   HalLcd_HW_Init (hal_lcd)
                                                   HalLcd_HW_SendCmd (hal_lcd)
                                                   halAssertHazardLights
                                                   main (hal_main)
                                                   zapPhyInit (zap_phy)
           ENTRY                   ADDRESS         REF BY
           =====                   =======         ======
           _A_PDOUT_L              0262 
           LOCAL                   ADDRESS         
           =====                   =======         
           PDOUT                   0262 
           PDOUT_H                 0263 
           PDOUT_L                 0262 
    -------------------------------------------------------------------------
DATA16_AN
  Relative segment, address: 0264 - 0265 (0x2 bytes), align: 0
  Segment part 5. ROOT.       Intra module refs:   HalLcd_HW_Init (hal_lcd)
                                                   halAssertHazardLights
                                                   main (hal_main)
                                                   zapPhyInit (zap_phy)
           ENTRY                   ADDRESS         REF BY
           =====                   =======         ======
           _A_PDDIR_L              0264 
           LOCAL                   ADDRESS         
           =====                   =======         
           PDDIR                   0264 
           PDDIR_H                 0265 
           PDDIR_L                 0264 
    -------------------------------------------------------------------------
DATA16_AN
  Relative segment, address: 0266 - 0267 (0x2 bytes), align: 0
  Segment part 6. ROOT.       Intra module refs:   halAssertHazardLights
                                                   main (hal_main)
                                                   zapPhyInit (zap_phy)
           ENTRY                   ADDRESS         REF BY
           =====                   =======         ======
           _A_PDREN_L              0266 
           LOCAL                   ADDRESS         
           =====                   =======         
           PDREN                   0266 
           PDREN_H                 0267 
           PDREN_L                 0266 
    -------------------------------------------------------------------------
CODE
  Relative segment, address: 756E - 7571 (0x4 bytes), align: 1
  Segment part 12.
           ENTRY                   ADDRESS         REF BY
           =====                   =======         ======
           halAssertHandler        756E            osal_mem_alloc (OSAL_Memory)
                                                   osal_mem_free (OSAL_Memory)
                                                   osal_mem_kick (OSAL_Memory)
                                                   zap_msg_deallocate (zap_app)
               calls direct
               CSTACK = 00000000 ( 00000004 )
    -------------------------------------------------------------------------
CODE
  Relative segment, address: 7572 - 769D (0x12c bytes), align: 1
  Segment part 10.            Intra module refs:   halAssertHandler
           ENTRY                   ADDRESS         REF BY
           =====                   =======         ======
           halAssertHazardLights   7572 
               calls direct
               CSTACK = 00000000 ( 0000000E )
    -------------------------------------------------------------------------
CODE
  Relative segment, address: 769E - 76AF (0x12 bytes), align: 1
  Segment part 11.            Intra module refs:   halAssertHazardLights
           LOCAL                   ADDRESS         
           =====                   =======         
           ?Subroutine0            769E 
    -------------------------------------------------------------------------
DATA16_Z
  Relative segment, address: 2C3A - 2C3A (0x1 bytes), align: 0
  Segment part 9.             Intra module refs:   halAssertHazardLights
           LOCAL                   ADDRESS         
           =====                   =======         
           halAssertHazardLights{18}{19}{25}::escape
                                   2C3A 

    *************************************************************************

  FILE NAME : C:\Users\student\Documents\GitHub\MHMS\ZAP-MSP430-2.5.1\Projects\zstack\ZAP\TVSA\EXP5438\Routinator\Obj\hal_board.r43
  PROGRAM MODULE, NAME : hal_board

  SEGMENTS IN THE MODULE
  ======================
DATA16_AN
  Relative segment, address: 021C - 021D (0x2 bytes), align: 0
  Segment part 1. ROOT.       Intra module refs:   HalBoardPort1Isr
                                                   HalKeyConfig (hal_key)
                                                   halBoardPort1Isr (hal_key)
           ENTRY                   ADDRESS         REF BY
           =====                   =======         ======
           _A_PAIFG_L              021C 
           LOCAL                   ADDRESS         
           =====                   =======         
           PAIFG                   021C 
           PAIFG_H                 021D 
           PAIFG_L                 021C 
    -------------------------------------------------------------------------
DATA16_AN
  Relative segment, address: 0340 - 0341 (0x2 bytes), align: 0
  Segment part 2. ROOT.       Intra module refs:   InitClock
           ENTRY                   ADDRESS         REF BY
           =====                   =======         ======
           TA0CTL                  0340 
    -------------------------------------------------------------------------
DATA16_AN
  Relative segment, address: 0342 - 0343 (0x2 bytes), align: 0
  Segment part 3. ROOT.       Intra module refs:   InitClock
           ENTRY                   ADDRESS         REF BY
           =====                   =======         ======
           TA0CCTL0                0342 
    -------------------------------------------------------------------------
DATA16_AN
  Relative segment, address: 0352 - 0353 (0x2 bytes), align: 0
  Segment part 4. ROOT.       Intra module refs:   InitClock
           ENTRY                   ADDRESS         REF BY
           =====                   =======         ======
           TA0CCR0                 0352 
    -------------------------------------------------------------------------
DATA16_Z
  Relative segment, address: 2C3B - 2C3B (0x1 bytes), align: 0
  Segment part 8.             Intra module refs:   InitBoard
           ENTRY                   ADDRESS         REF BY
           =====                   =======         ======
           OnboardKeyIntEnable     2C3B 
    -------------------------------------------------------------------------
DATA16_I
  Relative segment, address: 1C13 - 1C13 (0x1 bytes), align: 0
  Segment part 9.             Intra module refs:   OnBoard_SendKeys
                                                   RegisterForKeys
           LOCAL                   ADDRESS         
           =====                   =======         
           registeredKeysTaskID    1C13 
    -------------------------------------------------------------------------
DATA16_Z
  Relative segment, address: 1CDA - 1CDB (0x2 bytes), align: 1
  Segment part 11.            Intra module refs:   HalBoardDelay
                                                   HalBoardTimerRolloverIsr
                                                   osalTimeUpdate
           LOCAL                   ADDRESS         
           =====                   =======         
           halBrdTmrTick           1CDA 
    -------------------------------------------------------------------------
DATA16_Z
  Relative segment, address: 2C3C - 2C3C (0x1 bytes), align: 0
  Segment part 12.            Intra module refs:   HalBoardDelay
                                                   HalBoardDelayed
                                                   HalBoardTimerRolloverIsr
           LOCAL                   ADDRESS         
           =====                   =======         
           halBrdTmrDlyF           2C3C 
    -------------------------------------------------------------------------
DATA16_Z
  Relative segment, address: 1CDC - 1CDD (0x2 bytes), align: 1
  Segment part 13.            Intra module refs:   HalBoardDelay
                                                   HalBoardTimerRolloverIsr
           LOCAL                   ADDRESS         
           =====                   =======         
           halBrdTmrDly            1CDC 
    -------------------------------------------------------------------------
DATA16_Z
  Relative segment, address: 1CDE - 1CDF (0x2 bytes), align: 1
  Segment part 14.            Intra module refs:   osalTimeUpdate
           LOCAL                   ADDRESS         
           =====                   =======         
           halBrdTmrTickShdw       1CDE 
    -------------------------------------------------------------------------
DATA16_Z
  Relative segment, address: 2C3D - 2C3D (0x1 bytes), align: 0
  Segment part 15.            Intra module refs:   HalBoardDelay
                                                   HalBoardTimerRolloverIsr
           LOCAL                   ADDRESS         
           =====                   =======         
           halBrdDlySleep          2C3D 
    -------------------------------------------------------------------------
DATA16_Z
  Relative segment, address: 1CE0 - 1CE3 (0x4 bytes), align: 1
  Segment part 16.            Intra module refs:   osalTimeUpdate
           LOCAL                   ADDRESS         
           =====                   =======         
           OSAL_timeSeconds        1CE0 
    -------------------------------------------------------------------------
DATA16_Z
  Relative segment, address: 1CE4 - 1CE5 (0x2 bytes), align: 1
  Segment part 17.            Intra module refs:   osalTimeUpdate
           LOCAL                   ADDRESS         
           =====                   =======         
           timeMSec                1CE4 
    -------------------------------------------------------------------------
CODE
  Relative segment, address: 76B0 - 76C3 (0x14 bytes), align: 1
  Segment part 33.
           ENTRY                   ADDRESS         REF BY
           =====                   =======         ======
           InitClock               76B0            main (hal_main)
               CSTACK = 00000000 ( 00000004 )
    -------------------------------------------------------------------------
CODE
  Relative segment, address: 76C4 - 76D5 (0x12 bytes), align: 1
  Segment part 32.
           ENTRY                   ADDRESS         REF BY
           =====                   =======         ======
           InitBoard               76C4            main (hal_main)
               calls direct
               CSTACK = 00000000 ( 00000004 )
    -------------------------------------------------------------------------
CODE
  Relative segment, address: 76D6 - 76DB (0x6 bytes), align: 1
  Segment part 31.
           ENTRY                   ADDRESS         REF BY
           =====                   =======         ======
           RegisterForKeys         76D6            zapInit (zap_app)
               CSTACK = 00000000 ( 00000004 )
    -------------------------------------------------------------------------
CODE
  Relative segment, address: 76DC - 7713 (0x38 bytes), align: 1
  Segment part 29.            Intra module refs:   OnBoard_KeyCallback
           ENTRY                   ADDRESS         REF BY
           =====                   =======         ======
           OnBoard_SendKeys        76DC 
               calls direct
               CSTACK = 00000000 ( 00000008 )
    -------------------------------------------------------------------------
CODE
  Relative segment, address: 7714 - 771F (0xc bytes), align: 1
  Segment part 30.            Intra module refs:   InitBoard
           ENTRY                   ADDRESS         REF BY
           =====                   =======         ======
           OnBoard_KeyCallback     7714 
               calls direct
               CSTACK = 00000000 ( 00000004 )
    -------------------------------------------------------------------------
CODE
  Relative segment, address: 7720 - 7783 (0x64 bytes), align: 1
  Segment part 27.
           ENTRY                   ADDRESS         REF BY
           =====                   =======         ======
           _itoa                   7720            _ltoa (OSAL)
               CSTACK = 00000000 ( 00000016 )
    -------------------------------------------------------------------------
CODE
  Relative segment, address: 7784 - 7799 (0x16 bytes), align: 1
  Segment part 26.
           ENTRY                   ADDRESS         REF BY
           =====                   =======         ======
           Onboard_rand            7784            pulseZdoStateChange (tvsa)
               calls direct
               CSTACK = 00000000 ( 00000006 )
    -------------------------------------------------------------------------
CODE
  Relative segment, address: 779A - 77C5 (0x2c bytes), align: 1
  Segment part 25.
           ENTRY                   ADDRESS         REF BY
           =====                   =======         ======
           Onboard_wait            779A            ?Subroutine5 (zap_phy)
                                                   quickReset (zap_app)
               CSTACK = 00000000 ( 00000004 )
    -------------------------------------------------------------------------
CODE
  Relative segment, address: 77C6 - 7807 (0x42 bytes), align: 1
  Segment part 23.
           ENTRY                   ADDRESS         REF BY
           =====                   =======         ======
           osalTimeUpdate          77C6            osal_run_system (OSAL)
               calls direct
               CSTACK = 00000000 ( 00000006 )
    -------------------------------------------------------------------------
CODE
  Relative segment, address: 7808 - 7811 (0xa bytes), align: 1
  Segment part 24.            Intra module refs:   osalTimeUpdate
           LOCAL                   ADDRESS         
           =====                   =======         
           ?Subroutine0            7808 
    -------------------------------------------------------------------------
CODE
  Relative segment, address: 7812 - 7831 (0x20 bytes), align: 1
  Segment part 21.
           ENTRY                   ADDRESS         REF BY
           =====                   =======         ======
           HalBoardDelay           7812            ?Subroutine7 (zap_phy)
               CSTACK = 00000000 ( 00000004 )
    -------------------------------------------------------------------------
CODE
  Relative segment, address: 7832 - 7837 (0x6 bytes), align: 1
  Segment part 20.
           ENTRY                   ADDRESS         REF BY
           =====                   =======         ======
           HalBoardDelayed         7832            ?Subroutine0 (zap_phy)
                                                   getSRDY2 (zap_phy)
               CSTACK = 00000000 ( 00000004 )
    -------------------------------------------------------------------------
ISR_CODE
  Relative segment, address: 5C30 - 5C5B (0x2c bytes), align: 1
  Segment part 19.            Intra module refs:   HalBoardTimerRolloverIsr::??INTVEC 108
           ENTRY                   ADDRESS         REF BY
           =====                   =======         ======
           HalBoardTimerRolloverIsr
                                   5C30 
               interrupt function
               CSTACK = 00000000 ( 00000006 )
    -------------------------------------------------------------------------
ISR_CODE
  Relative segment, address: 5C5C - 5C67 (0xc bytes), align: 1
  Segment part 18.            Intra module refs:   HalBoardPort1Isr::??INTVEC 94
           ENTRY                   ADDRESS         REF BY
           =====                   =======         ======
           HalBoardPort1Isr        5C5C 
               interrupt function
               CSTACK = 00000000 ( 00000004 )
    -------------------------------------------------------------------------
INTVEC
  Common segment, address: FF80 - FFDF (0x60 bytes), align: 1
  Segment part 5. ROOT.
           ENTRY                   ADDRESS         REF BY
           =====                   =======         ======
           HalBoardPort1Isr::??INTVEC 94
                                   FFDE 
    -------------------------------------------------------------------------
INTVEC
  Common segment, address: FF80 - FFED (0x6e bytes), align: 1
  Segment part 6. ROOT.
           ENTRY                   ADDRESS         REF BY
           =====                   =======         ======
           HalBoardTimerRolloverIsr::??INTVEC 108
                                   FFEC 
    -------------------------------------------------------------------------
DATA16_ID
  Relative segment, address: 674B - 674B (0x1 bytes), align: 0
  Segment part 10.            Intra module refs:   registeredKeysTaskID

    *************************************************************************

  FILE NAME : C:\Users\student\Documents\GitHub\MHMS\ZAP-MSP430-2.5.1\Projects\zstack\ZAP\TVSA\EXP5438\Routinator\Obj\hal_dco.r43
  PROGRAM MODULE, NAME : hal_dco

  SEGMENTS IN THE MODULE
  ======================
DATA16_AN
  Relative segment, address: 0120 - 0121 (0x2 bytes), align: 0
  Segment part 1. ROOT.       Intra module refs:   halBoardSetVCore
                                                   halBoardSetVCoreUp
                                                   zapMonitor (zap_app)
           ENTRY                   ADDRESS         REF BY
           =====                   =======         ======
           _A_PMMCTL0_L            0120 
           LOCAL                   ADDRESS         
           =====                   =======         
           PMMCTL0                 0120 
           PMMCTL0_H               0121 
           PMMCTL0_L               0120 
    -------------------------------------------------------------------------
DATA16_AN
  Relative segment, address: 0124 - 0125 (0x2 bytes), align: 0
  Segment part 2. ROOT.       Intra module refs:   halBoardSetVCoreUp
           ENTRY                   ADDRESS         REF BY
           =====                   =======         ======
           _A_SVSMHCTL_L           0124 
           LOCAL                   ADDRESS         
           =====                   =======         
           SVSMHCTL                0124 
           SVSMHCTL_H              0125 
           SVSMHCTL_L              0124 
    -------------------------------------------------------------------------
DATA16_AN
  Relative segment, address: 0126 - 0127 (0x2 bytes), align: 0
  Segment part 3. ROOT.       Intra module refs:   halBoardSetVCore
                                                   halBoardSetVCoreUp
           ENTRY                   ADDRESS         REF BY
           =====                   =======         ======
           _A_SVSMLCTL_L           0126 
           LOCAL                   ADDRESS         
           =====                   =======         
           SVSMLCTL                0126 
           SVSMLCTL_H              0127 
           SVSMLCTL_L              0126 
    -------------------------------------------------------------------------
DATA16_AN
  Relative segment, address: 012C - 012D (0x2 bytes), align: 0
  Segment part 4. ROOT.       Intra module refs:   halBoardSetVCore
                                                   halBoardSetVCoreUp
           ENTRY                   ADDRESS         REF BY
           =====                   =======         ======
           _A_PMMIFG_L             012C 
           LOCAL                   ADDRESS         
           =====                   =======         
           PMMIFG                  012C 
           PMMIFG_H                012D 
           PMMIFG_L                012C 
    -------------------------------------------------------------------------
DATA16_AN
  Relative segment, address: 0160 - 0161 (0x2 bytes), align: 0
  Segment part 5. ROOT.       Intra module refs:   halBoardSetSystemClock
           ENTRY                   ADDRESS         REF BY
           =====                   =======         ======
           _A_UCSCTL0_L            0160 
           LOCAL                   ADDRESS         
           =====                   =======         
           UCSCTL0                 0160 
           UCSCTL0_H               0161 
           UCSCTL0_L               0160 
    -------------------------------------------------------------------------
DATA16_AN
  Relative segment, address: 0162 - 0163 (0x2 bytes), align: 0
  Segment part 6. ROOT.       Intra module refs:   halBoardSetSystemClock
           ENTRY                   ADDRESS         REF BY
           =====                   =======         ======
           _A_UCSCTL1_L            0162 
           LOCAL                   ADDRESS         
           =====                   =======         
           UCSCTL1                 0162 
           UCSCTL1_H               0163 
           UCSCTL1_L               0162 
    -------------------------------------------------------------------------
DATA16_AN
  Relative segment, address: 0164 - 0165 (0x2 bytes), align: 0
  Segment part 7. ROOT.       Intra module refs:   halBoardSetSystemClock
           ENTRY                   ADDRESS         REF BY
           =====                   =======         ======
           _A_UCSCTL2_L            0164 
           LOCAL                   ADDRESS         
           =====                   =======         
           UCSCTL2                 0164 
           UCSCTL2_H               0165 
           UCSCTL2_L               0164 
    -------------------------------------------------------------------------
DATA16_AN
  Relative segment, address: 0168 - 0169 (0x2 bytes), align: 0
  Segment part 8. ROOT.       Intra module refs:   halBoardSetSystemClock
           ENTRY                   ADDRESS         REF BY
           =====                   =======         ======
           _A_UCSCTL4_L            0168 
           LOCAL                   ADDRESS         
           =====                   =======         
           UCSCTL4                 0168 
           UCSCTL4_H               0169 
           UCSCTL4_L               0168 
    -------------------------------------------------------------------------
CODE
  Relative segment, address: 7838 - 7871 (0x3a bytes), align: 1
  Segment part 15.
           ENTRY                   ADDRESS         REF BY
           =====                   =======         ======
           halBoardSetSystemClock
                                   7838            halAssertHazardLights (hal_assert)
                                                   main (hal_main)
               calls direct
               CSTACK = 00000000 ( 00000008 )
    -------------------------------------------------------------------------
CODE
  Relative segment, address: 7872 - 7913 (0xa2 bytes), align: 1
  Segment part 13.            Intra module refs:   halBoardSetSystemClock
           LOCAL                   ADDRESS         
           =====                   =======         
           halBoardGetSystemClockSettings
                                   7872 
               CSTACK = 00000000 ( 00000004 )
    -------------------------------------------------------------------------
CODE
  Relative segment, address: 7914 - 791F (0xc bytes), align: 1
  Segment part 14.            Intra module refs:   halBoardGetSystemClockSettings
           LOCAL                   ADDRESS         
           =====                   =======         
           ?Subroutine0            7914 
    -------------------------------------------------------------------------
CODE
  Relative segment, address: 7920 - 7983 (0x64 bytes), align: 1
  Segment part 10.            Intra module refs:   halBoardSetVCore
           LOCAL                   ADDRESS         
           =====                   =======         
           halBoardSetVCoreUp      7920 
               CSTACK = 00000000 ( 00000004 )
    -------------------------------------------------------------------------
CODE
  Relative segment, address: 7984 - 7993 (0x10 bytes), align: 1
  Segment part 12.            Intra module refs:   halBoardSetVCore
                                                   halBoardSetVCoreUp
           LOCAL                   ADDRESS         
           =====                   =======         
           ?Subroutine1            7984 
    -------------------------------------------------------------------------
CODE
  Relative segment, address: 7994 - 79DF (0x4c bytes), align: 1
  Segment part 11.            Intra module refs:   halBoardSetSystemClock
           LOCAL                   ADDRESS         
           =====                   =======         
           halBoardSetVCore        7994 
               calls direct
               CSTACK = 00000000 ( 00000008 )

    *************************************************************************

  FILE NAME : C:\Users\student\Documents\GitHub\MHMS\ZAP-MSP430-2.5.1\Projects\zstack\ZAP\TVSA\EXP5438\Routinator\Obj\hal_drivers.r43
  PROGRAM MODULE, NAME : hal_drivers

  SEGMENTS IN THE MODULE
  ======================
DATA16_Z
  Relative segment, address: 2C3E - 2C3E (0x1 bytes), align: 0
  Segment part 2.             Intra module refs:   Hal_Init
                                                   Hal_ProcessEvent
           ENTRY                   ADDRESS         REF BY
           =====                   =======         ======
           Hal_TaskID              2C3E            HalKeyConfig (hal_key)
                                                   HalLedBlink (hal_led)
                                                   HalLedUpdate (hal_led)
                                                   halBoardPort1Isr (hal_key)
    -------------------------------------------------------------------------
CODE
  Relative segment, address: 79E0 - 79E5 (0x6 bytes), align: 1
  Segment part 6.
           ENTRY                   ADDRESS         REF BY
           =====                   =======         ======
           Hal_Init                79E0            osalInitTasks (OSAL_TVSA)
               CSTACK = 00000000 ( 00000004 )
    -------------------------------------------------------------------------
CODE
  Relative segment, address: 79E6 - 79FD (0x18 bytes), align: 1
  Segment part 5.
           ENTRY                   ADDRESS         REF BY
           =====                   =======         ======
           HalDriverInit           79E6            main (hal_main)
               calls direct
               CSTACK = 00000000 ( 00000004 )
    -------------------------------------------------------------------------
CODE
  Relative segment, address: 79FE - 7A51 (0x54 bytes), align: 1
  Segment part 4.
           ENTRY                   ADDRESS         REF BY
           =====                   =======         ======
           Hal_ProcessEvent        79FE            tasksArr (OSAL_TVSA)
               calls direct
               CSTACK = 00000000 ( 00000006 )
    -------------------------------------------------------------------------
CODE
  Relative segment, address: 7A52 - 7A59 (0x8 bytes), align: 1
  Segment part 3.
           ENTRY                   ADDRESS         REF BY
           =====                   =======         ======
           Hal_ProcessPoll         7A52            osal_run_system (OSAL)
               calls direct
               CSTACK = 00000000 ( 00000004 )

    *************************************************************************

  FILE NAME : C:\Users\student\Documents\GitHub\MHMS\ZAP-MSP430-2.5.1\Projects\zstack\ZAP\TVSA\EXP5438\Routinator\Obj\hal_key.r43
  PROGRAM MODULE, NAME : hal_key

  SEGMENTS IN THE MODULE
  ======================
DATA16_AN
  Relative segment, address: 0206 - 0207 (0x2 bytes), align: 0
  Segment part 4. ROOT.       Intra module refs:   HalKeyConfig
           ENTRY                   ADDRESS         REF BY
           =====                   =======         ======
           _A_PAREN_L              0206 
           LOCAL                   ADDRESS         
           =====                   =======         
           PAREN                   0206 
           PAREN_H                 0207 
           PAREN_L                 0206 
    -------------------------------------------------------------------------
DATA16_AN
  Relative segment, address: 020A - 020B (0x2 bytes), align: 0
  Segment part 5. ROOT.       Intra module refs:   HalKeyConfig
                                                   zapPhySpiInit (zap_phy)
           ENTRY                   ADDRESS         REF BY
           =====                   =======         ======
           _A_PASEL_L              020A 
           LOCAL                   ADDRESS         
           =====                   =======         
           PASEL                   020A 
           PASEL_H                 020B 
           PASEL_L                 020A 
    -------------------------------------------------------------------------
DATA16_AN
  Relative segment, address: 0218 - 0219 (0x2 bytes), align: 0
  Segment part 6. ROOT.       Intra module refs:   HalKeyConfig
                                                   getSRDY2 (zap_phy)
                                                   zapPhySpiInit (zap_phy)
           ENTRY                   ADDRESS         REF BY
           =====                   =======         ======
           _A_PAIES_L              0218 
           LOCAL                   ADDRESS         
           =====                   =======         
           PAIES                   0218 
           PAIES_H                 0219 
           PAIES_L                 0218 
    -------------------------------------------------------------------------
DATA16_AN
  Relative segment, address: 021A - 021B (0x2 bytes), align: 0
  Segment part 7. ROOT.       Intra module refs:   HalKeyConfig
                                                   getSRDY2 (zap_phy)
                                                   zapPhySpiInit (zap_phy)
           ENTRY                   ADDRESS         REF BY
           =====                   =======         ======
           _A_PAIE_L               021A 
           LOCAL                   ADDRESS         
           =====                   =======         
           PAIE                    021A 
           PAIE_H                  021B 
           PAIE_L                  021A 
    -------------------------------------------------------------------------
DATA16_Z
  Relative segment, address: 2C3F - 2C3F (0x1 bytes), align: 0
  Segment part 11.            Intra module refs:   HalKeyInit
                                                   HalKeyPoll
           LOCAL                   ADDRESS         
           =====                   =======         
           halSavedKeys            2C3F 
    -------------------------------------------------------------------------
DATA16_Z
  Relative segment, address: 2C40 - 2C40 (0x1 bytes), align: 0
  Segment part 12.            Intra module refs:   HalKeyPoll
                                                   halBoardPort1Isr
           LOCAL                   ADDRESS         
           =====                   =======         
           halIntKeys              2C40 
    -------------------------------------------------------------------------
DATA16_Z
  Relative segment, address: 1CE6 - 1CE9 (0x4 bytes), align: 1
  Segment part 13.            Intra module refs:   HalKeyConfig
                                                   HalKeyInit
                                                   HalKeyPoll
           LOCAL                   ADDRESS         
           =====                   =======         
           pHal_KeyProcessFunction
                                   1CE6 
    -------------------------------------------------------------------------
DATA16_Z
  Relative segment, address: 2C41 - 2C41 (0x1 bytes), align: 0
  Segment part 14.            Intra module refs:   HalKeyConfig
                                                   HalKeyPoll
           ENTRY                   ADDRESS         REF BY
           =====                   =======         ======
           Hal_KeyIntEnable        2C41            Hal_ProcessEvent (hal_drivers)
    -------------------------------------------------------------------------
CODE
  Relative segment, address: 7A5A - 7A67 (0xe bytes), align: 1
  Segment part 20.
           ENTRY                   ADDRESS         REF BY
           =====                   =======         ======
           HalKeyInit              7A5A            HalDriverInit (hal_drivers)
               CSTACK = 00000000 ( 00000004 )
    -------------------------------------------------------------------------
CODE
  Relative segment, address: 7A68 - 7AB5 (0x4e bytes), align: 1
  Segment part 19.
           ENTRY                   ADDRESS         REF BY
           =====                   =======         ======
           HalKeyConfig            7A68            InitBoard (hal_board)
               calls direct
               CSTACK = 00000000 ( 00000004 )
    -------------------------------------------------------------------------
CODE
  Relative segment, address: 7AB6 - 7B1D (0x68 bytes), align: 1
  Segment part 18.            Intra module refs:   HalKeyPoll
           LOCAL                   ADDRESS         
           =====                   =======         
           ?Subroutine0            7AB6 
    -------------------------------------------------------------------------
CODE
  Relative segment, address: 7B1E - 7B5B (0x3e bytes), align: 1
  Segment part 16.
           ENTRY                   ADDRESS         REF BY
           =====                   =======         ======
           HalKeyPoll              7B1E            Hal_ProcessEvent (hal_drivers)
               calls indirect
               CSTACK = 00000000 ( 0000000C )
    -------------------------------------------------------------------------
ISR_CODE
  Relative segment, address: 5C68 - 5CE3 (0x7c bytes), align: 1
  Segment part 15.            Intra module refs:   halBoardPort1Isr::??INTVEC 84
           ENTRY                   ADDRESS         REF BY
           =====                   =======         ======
           halBoardPort1Isr        5C68 
               interrupt function
               calls direct
               CSTACK = 00000000 ( 00000014 )
    -------------------------------------------------------------------------
INTVEC
  Common segment, address: FF80 - FFD5 (0x56 bytes), align: 1
  Segment part 9. ROOT.
           ENTRY                   ADDRESS         REF BY
           =====                   =======         ======
           halBoardPort1Isr::??INTVEC 84
                                   FFD4 

    *************************************************************************

  FILE NAME : C:\Users\student\Documents\GitHub\MHMS\ZAP-MSP430-2.5.1\Projects\zstack\ZAP\TVSA\EXP5438\Routinator\Obj\hal_lcd.r43
  PROGRAM MODULE, NAME : hal_lcd

  SEGMENTS IN THE MODULE
  ======================
DATA16_AN
  Relative segment, address: 0260 - 0261 (0x2 bytes), align: 0
  Segment part 1. ROOT.       Intra module refs:   HalLcd_HW_Init
                                                   HalLcd_HW_SendCmd
           ENTRY                   ADDRESS         REF BY
           =====                   =======         ======
           _A_PDIN_L               0260 
           LOCAL                   ADDRESS         
           =====                   =======         
           PDIN                    0260 
           PDIN_H                  0261 
           PDIN_L                  0260 
    -------------------------------------------------------------------------
DATA16_AN
  Relative segment, address: 026A - 026B (0x2 bytes), align: 0
  Segment part 4. ROOT.       Intra module refs:   HalLcd_HW_Init
                                                   zapPhyInit (zap_phy)
           ENTRY                   ADDRESS         REF BY
           =====                   =======         ======
           _A_PDSEL_L              026A 
           LOCAL                   ADDRESS         
           =====                   =======         
           PDSEL                   026A 
           PDSEL_H                 026B 
           PDSEL_L                 026A 
    -------------------------------------------------------------------------
DATA16_AN
  Relative segment, address: 0282 - 0283 (0x2 bytes), align: 0
  Segment part 5. ROOT.       Intra module refs:   HalLcd_HW_Init
                                                   HalLcd_HW_SendCmd
           ENTRY                   ADDRESS         REF BY
           =====                   =======         ======
           _A_PEOUT_L              0282 
           LOCAL                   ADDRESS         
           =====                   =======         
           PEOUT                   0282 
           PEOUT_H                 0283 
           PEOUT_L                 0282 
    -------------------------------------------------------------------------
DATA16_AN
  Relative segment, address: 0284 - 0285 (0x2 bytes), align: 0
  Segment part 6. ROOT.       Intra module refs:   HalLcd_HW_Init
           ENTRY                   ADDRESS         REF BY
           =====                   =======         ======
           _A_PEDIR_L              0284 
           LOCAL                   ADDRESS         
           =====                   =======         
           PEDIR                   0284 
           PEDIR_H                 0285 
           PEDIR_L                 0284 
    -------------------------------------------------------------------------
DATA16_AN
  Relative segment, address: 028A - 028B (0x2 bytes), align: 0
  Segment part 7. ROOT.       Intra module refs:   HalLcd_HW_Init
           ENTRY                   ADDRESS         REF BY
           =====                   =======         ======
           _A_PESEL_L              028A 
           LOCAL                   ADDRESS         
           =====                   =======         
           PESEL                   028A 
           PESEL_H                 028B 
           PESEL_L                 028A 
    -------------------------------------------------------------------------
DATA16_AN
  Relative segment, address: 0348 - 0349 (0x2 bytes), align: 0
  Segment part 8. ROOT.       Intra module refs:   HalLcd_HW_InitBackLight
           ENTRY                   ADDRESS         REF BY
           =====                   =======         ======
           TA0CCTL3                0348 
    -------------------------------------------------------------------------
DATA16_AN
  Relative segment, address: 0358 - 0359 (0x2 bytes), align: 0
  Segment part 9. ROOT.       Intra module refs:   HalLcd_HW_InitBackLight
           ENTRY                   ADDRESS         REF BY
           =====                   =======         ======
           TA0CCR3                 0358 
    -------------------------------------------------------------------------
DATA16_AN
  Relative segment, address: 0660 - 0661 (0x2 bytes), align: 0
  Segment part 10. ROOT.      Intra module refs:   HalLcd_HW_Init
           ENTRY                   ADDRESS         REF BY
           =====                   =======         ======
           _A_UCB2CTLW0_L          0660 
           LOCAL                   ADDRESS         
           =====                   =======         
           UCB2CTLW0               0660 
           UCB2CTLW0_H             0661 
           UCB2CTLW0_L             0660 
    -------------------------------------------------------------------------
DATA16_AN
  Relative segment, address: 0666 - 0667 (0x2 bytes), align: 0
  Segment part 11. ROOT.      Intra module refs:   HalLcd_HW_Init
           ENTRY                   ADDRESS         REF BY
           =====                   =======         ======
           _A_UCB2BRW_L            0666 
           LOCAL                   ADDRESS         
           =====                   =======         
           UCB2BRW                 0666 
           UCB2BRW_H               0667 
           UCB2BRW_L               0666 
    -------------------------------------------------------------------------
DATA16_AN
  Relative segment, address: 066A - 066A (0x1 bytes), align: 0
  Segment part 12. ROOT.      Intra module refs:   HalLcd_HW_SendCmd
           ENTRY                   ADDRESS         REF BY
           =====                   =======         ======
           UCB2STAT                066A 
    -------------------------------------------------------------------------
DATA16_AN
  Relative segment, address: 066E - 066E (0x1 bytes), align: 0
  Segment part 13. ROOT.      Intra module refs:   HalLcd_HW_SendCmd
           ENTRY                   ADDRESS         REF BY
           =====                   =======         ======
           UCB2TXBUF               066E 
    -------------------------------------------------------------------------
DATA16_AN
  Relative segment, address: 067C - 067D (0x2 bytes), align: 0
  Segment part 14. ROOT.      Intra module refs:   HalLcd_HW_Init
                                                   HalLcd_HW_SendCmd
           ENTRY                   ADDRESS         REF BY
           =====                   =======         ======
           _A_UCB2ICTL_L           067C 
           LOCAL                   ADDRESS         
           =====                   =======         
           UCB2ICTL                067C 
           UCB2ICTL_H              067D 
           UCB2ICTL_L              067C 
    -------------------------------------------------------------------------
DATA16_I
  Relative segment, address: 1C14 - 1C7F (0x6c bytes), align: 0
  Segment part 19.            Intra module refs:   HalLcd_HW_Active
                                                   HalLcd_HW_Init
           ENTRY                   ADDRESS         REF BY
           =====                   =======         ======
           LcdInitMacro            1C14 
    -------------------------------------------------------------------------
DATA16_Z
  Relative segment, address: 1CEA - 1CEB (0x2 bytes), align: 1
  Segment part 21.            Intra module refs:   HalLcdInit
                                                   HalLcdWriteString
           LOCAL                   ADDRESS         
           =====                   =======         
           Lcd_Line1               1CEA 
    -------------------------------------------------------------------------
DATA16_I
  Relative segment, address: 1C80 - 1C85 (0x6 bytes), align: 0
  Segment part 26.            Intra module refs:   HalLcd_HW_DrawCurrentBlock
           ENTRY                   ADDRESS         REF BY
           =====                   =======         ======
           Draw_Block_Value_Macro
                                   1C80 
    -------------------------------------------------------------------------
DATA16_I
  Relative segment, address: 1C86 - 1C8B (0x6 bytes), align: 0
  Segment part 28.            Intra module refs:   HalLcd_HW_SetAddress
           ENTRY                   ADDRESS         REF BY
           =====                   =======         ======
           Draw_Block_Address_Macro
                                   1C86 
    -------------------------------------------------------------------------
DATA16_Z
  Relative segment, address: 1CEC - 1CED (0x2 bytes), align: 1
  Segment part 30.            Intra module refs:   HalLcd_HW_DrawCurrentBlock
                                                   HalLcd_HW_SetAddress
                                                   HalLcd_HW_WriteLine
           ENTRY                   ADDRESS         REF BY
           =====                   =======         ======
           LcdAddress              1CEC 
    -------------------------------------------------------------------------
DATA16_Z
  Relative segment, address: 1CEE - 1CEF (0x2 bytes), align: 1
  Segment part 31.            Intra module refs:   HalLcd_HW_DrawCurrentBlock
                                                   HalLcd_HW_SetAddress
           ENTRY                   ADDRESS         REF BY
           =====                   =======         ======
           LcdTableAddress         1CEE 
    -------------------------------------------------------------------------
DATA16_Z
  Relative segment, address: 1CF0 - 2B8B (0xe9c bytes), align: 1
  Segment part 32.            Intra module refs:   HalLcd_HW_DrawCurrentBlock
           ENTRY                   ADDRESS         REF BY
           =====                   =======         ======
           LCD_MEM                 1CF0 
    -------------------------------------------------------------------------
DATA16_C
  Relative segment, address: 65AF - 65BF (0x11 bytes), align: 0
  Segment part 16.            Intra module refs:   HalLcdWriteString
    -------------------------------------------------------------------------
DATA16_C
  Relative segment, address: 65C0 - 65D1 (0x12 bytes), align: 0
  Segment part 17.            Intra module refs:   HalLcdWriteString
    -------------------------------------------------------------------------
DATA16_C
  Relative segment, address: 65D2 - 665A (0x89 bytes), align: 0
  Segment part 33.            Intra module refs:   HalLcd_HW_WriteLine
           ENTRY                   ADDRESS         REF BY
           =====                   =======         ======
           fonts_lookup            65D2 
    -------------------------------------------------------------------------
DATA16_C
  Relative segment, address: 5D18 - 656B (0x854 bytes), align: 1
  Segment part 34.            Intra module refs:   HalLcd_HW_WriteLine
           ENTRY                   ADDRESS         REF BY
           =====                   =======         ======
           fonts                   5D18 
    -------------------------------------------------------------------------
CODE
  Relative segment, address: 7B5C - 7B63 (0x8 bytes), align: 1
  Segment part 54.
           ENTRY                   ADDRESS         REF BY
           =====                   =======         ======
           HalLcdInit              7B5C            HalDriverInit (hal_drivers)
               calls direct
               CSTACK = 00000000 ( 00000004 )
    -------------------------------------------------------------------------
CODE
  Relative segment, address: 7B64 - 7C13 (0xb0 bytes), align: 1
  Segment part 46.            Intra module refs:   ?Subroutine0
                                                   HalLcdWriteValue
           ENTRY                   ADDRESS         REF BY
           =====                   =======         ======
           HalLcdWriteString       7B64            TestPayloadTx (tvsa)
                                                   pulseNodeCheckIn (tvsa)
                                                   zapDisInfo (zap_app)
                                                   zapKeys (zap_app)
               calls direct
               CSTACK = 00000000 ( 00000014 )
    -------------------------------------------------------------------------
CODE
  Relative segment, address: 7C14 - 7C37 (0x24 bytes), align: 1
  Segment part 53.
           ENTRY                   ADDRESS         REF BY
           =====                   =======         ======
           HalLcdWriteValue        7C14            pulseZdoStateChange (tvsa)
               calls direct
               CSTACK = 00000000 ( 00000020 )
    -------------------------------------------------------------------------
CODE
  Relative segment, address: 7C38 - 7C73 (0x3c bytes), align: 1
  Segment part 50.
           ENTRY                   ADDRESS         REF BY
           =====                   =======         ======
           HalLcdWriteStringValue
                                   7C38            pulseBPM (tvsa)
                                                   zapDisInfo (zap_app)
                                                   zapMonInfo (zap_app)
               calls direct
               CSTACK = 00000000 ( 0000002A )
    -------------------------------------------------------------------------
CODE
  Relative segment, address: 7C74 - 7C83 (0x10 bytes), align: 1
  Segment part 51.            Intra module refs:   HalLcdWriteStringValue
           LOCAL                   ADDRESS         
           =====                   =======         
           ?Subroutine0            7C74 
    -------------------------------------------------------------------------
CODE
  Relative segment, address: 7C84 - 7D1D (0x9a bytes), align: 1
  Segment part 45.            Intra module refs:   HalLcdInit
           ENTRY                   ADDRESS         REF BY
           =====                   =======         ======
           HalLcd_HW_Init          7C84 
               calls direct
               CSTACK = 00000000 ( 00000006 )
    -------------------------------------------------------------------------
CODE
  Relative segment, address: 7D1E - 7D85 (0x68 bytes), align: 1
  Segment part 36.            Intra module refs:   HalLcd_HW_Active
                                                   HalLcd_HW_DrawCurrentBlock
                                                   HalLcd_HW_Init
                                                   HalLcd_HW_SetAddress
           ENTRY                   ADDRESS         REF BY
           =====                   =======         ======
           HalLcd_HW_SendCmd       7D1E 
               CSTACK = 00000000 ( 00000004 )
    -------------------------------------------------------------------------
CODE
  Relative segment, address: 7D86 - 7D93 (0xe bytes), align: 1
  Segment part 44.            Intra module refs:   HalLcd_HW_Init
           ENTRY                   ADDRESS         REF BY
           =====                   =======         ======
           HalLcd_HW_InitBackLight
                                   7D86 
               CSTACK = 00000000 ( 00000004 )
    -------------------------------------------------------------------------
CODE
  Relative segment, address: 7D94 - 7DB3 (0x20 bytes), align: 1
  Segment part 43.            Intra module refs:   HalLcd_HW_Init
           ENTRY                   ADDRESS         REF BY
           =====                   =======         ======
           HalLcd_HW_Clear         7D94 
               calls direct
               CSTACK = 00000000 ( 00000006 )
    -------------------------------------------------------------------------
CODE
  Relative segment, address: 7DB4 - 7E2D (0x7a bytes), align: 1
  Segment part 42.            Intra module refs:   HalLcdWriteString
           ENTRY                   ADDRESS         REF BY
           =====                   =======         ======
           HalLcd_HW_WriteLine     7DB4 
               calls direct
               CSTACK = 00000000 ( 00000010 )
    -------------------------------------------------------------------------
CODE
  Relative segment, address: 7E2E - 7E65 (0x38 bytes), align: 1
  Segment part 37.            Intra module refs:   HalLcd_HW_Clear
                                                   HalLcd_HW_DrawBlock
                                                   HalLcd_HW_DrawCurrentBlock
                                                   HalLcd_HW_WriteLine
           ENTRY                   ADDRESS         REF BY
           =====                   =======         ======
           HalLcd_HW_SetAddress    7E2E 
               calls direct
               CSTACK = 00000000 ( 00000006 )
    -------------------------------------------------------------------------
CODE
  Relative segment, address: 7E66 - 7E7D (0x18 bytes), align: 1
  Segment part 40.            Intra module refs:   HalLcd_HW_Init
           ENTRY                   ADDRESS         REF BY
           =====                   =======         ======
           HalLcd_HW_Active        7E66 
               calls direct
               CSTACK = 00000000 ( 00000004 )
    -------------------------------------------------------------------------
CODE
  Relative segment, address: 7E7E - 7EE5 (0x68 bytes), align: 1
  Segment part 38.            Intra module refs:   HalLcd_HW_Clear
                                                   HalLcd_HW_DrawBlock
           ENTRY                   ADDRESS         REF BY
           =====                   =======         ======
           HalLcd_HW_DrawCurrentBlock
                                   7E7E 
               calls direct
               CSTACK = 00000000 ( 00000004 )
    -------------------------------------------------------------------------
CODE
  Relative segment, address: 7EE6 - 7EF7 (0x12 bytes), align: 1
  Segment part 39.            Intra module refs:   HalLcd_HW_WriteLine
           ENTRY                   ADDRESS         REF BY
           =====                   =======         ======
           HalLcd_HW_DrawBlock     7EE6 
               calls direct
               CSTACK = 00000000 ( 00000006 )
    -------------------------------------------------------------------------
DATA16_ID
  Relative segment, address: 674C - 67B7 (0x6c bytes), align: 0
  Segment part 20.            Intra module refs:   LcdInitMacro
    -------------------------------------------------------------------------
DATA16_ID
  Relative segment, address: 67B8 - 67BD (0x6 bytes), align: 0
  Segment part 27.            Intra module refs:   Draw_Block_Value_Macro
    -------------------------------------------------------------------------
DATA16_ID
  Relative segment, address: 67BE - 67C3 (0x6 bytes), align: 0
  Segment part 29.            Intra module refs:   Draw_Block_Address_Macro

    *************************************************************************

  FILE NAME : C:\Users\student\Documents\GitHub\MHMS\ZAP-MSP430-2.5.1\Projects\zstack\ZAP\TVSA\EXP5438\Routinator\Obj\hal_led.r43
  PROGRAM MODULE, NAME : hal_led

  SEGMENTS IN THE MODULE
  ======================
DATA16_Z
  Relative segment, address: 2C42 - 2C42 (0x1 bytes), align: 0
  Segment part 3.             Intra module refs:   HalLedBlink
                                                   HalLedOnOff
                                                   HalLedSet
           LOCAL                   ADDRESS         
           =====                   =======         
           ledState                2C42 
    -------------------------------------------------------------------------
DATA16_Z
  Relative segment, address: 2C43 - 2C43 (0x1 bytes), align: 0
  Segment part 4.             Intra module refs:   HalLedBlink
                                                   HalLedUpdate
           LOCAL                   ADDRESS         
           =====                   =======         
           preBlinkState           2C43 
    -------------------------------------------------------------------------
DATA16_Z
  Relative segment, address: 2B8C - 2BB3 (0x28 bytes), align: 1
  Segment part 5.             Intra module refs:   HalLedBlink
                                                   HalLedSet
                                                   HalLedUpdate
           LOCAL                   ADDRESS         
           =====                   =======         
           HalLedStatusTable       2B8C 
    -------------------------------------------------------------------------
CODE
  Relative segment, address: 7EF8 - 7F01 (0xa bytes), align: 1
  Segment part 11.
           ENTRY                   ADDRESS         REF BY
           =====                   =======         ======
           HalLedInit              7EF8            HalDriverInit (hal_drivers)
               calls direct
               CSTACK = 00000000 ( 00000004 )
    -------------------------------------------------------------------------
CODE
  Relative segment, address: 7F02 - 7F79 (0x78 bytes), align: 1
  Segment part 9.             Intra module refs:   HalLedBlink
                                                   HalLedInit
                                                   HalLedUpdate
           ENTRY                   ADDRESS         REF BY
           =====                   =======         ======
           HalLedSet               7F02            pulseBPM (tvsa)
               calls direct
               CSTACK = 00000000 ( 0000000C )
    -------------------------------------------------------------------------
CODE
  Relative segment, address: 7F7A - 8007 (0x8e bytes), align: 1
  Segment part 8.             Intra module refs:   HalLedSet
           ENTRY                   ADDRESS         REF BY
           =====                   =======         ======
           HalLedBlink             7F7A 
               calls direct
               CSTACK = 00000000 ( 00000010 )
    -------------------------------------------------------------------------
CODE
  Relative segment, address: 8008 - 80F9 (0xf2 bytes), align: 1
  Segment part 10.
           ENTRY                   ADDRESS         REF BY
           =====                   =======         ======
           HalLedUpdate            8008            Hal_ProcessEvent (hal_drivers)
               calls direct
               CSTACK = 00000000 ( 00000014 )
    -------------------------------------------------------------------------
CODE
  Relative segment, address: 80FA - 8143 (0x4a bytes), align: 1
  Segment part 6.             Intra module refs:   HalLedSet
                                                   HalLedUpdate
           ENTRY                   ADDRESS         REF BY
           =====                   =======         ======
           HalLedOnOff             80FA 
               CSTACK = 00000000 ( 00000004 )
    -------------------------------------------------------------------------
CODE
  Relative segment, address: 8144 - 8155 (0x12 bytes), align: 1
  Segment part 7.             Intra module refs:   HalLedOnOff
           LOCAL                   ADDRESS         
           =====                   =======         
           ?Subroutine0            8144 

    *************************************************************************

  FILE NAME : C:\Users\student\Documents\GitHub\MHMS\ZAP-MSP430-2.5.1\Projects\zstack\ZAP\TVSA\EXP5438\Routinator\Obj\hal_main.r43
  PROGRAM MODULE, NAME : hal_main

  SEGMENTS IN THE MODULE
  ======================
CODE
  Relative segment, address: 8156 - 81C3 (0x6e bytes), align: 1
  Segment part 8.
           ENTRY                   ADDRESS         REF BY
           =====                   =======         ======
           main                    8156            Segment part 22 (?cstart)
               calls direct
               CSTACK = 00000000 ( 00000004 )

    *************************************************************************

  FILE NAME : C:\Users\student\Documents\GitHub\MHMS\ZAP-MSP430-2.5.1\Projects\zstack\ZAP\TVSA\EXP5438\Routinator\Obj\hal_spi.r43
  PROGRAM MODULE, NAME : hal_spi

  SEGMENTS IN THE MODULE
  ======================
DATA16_AN
  Relative segment, address: 0222 - 0223 (0x2 bytes), align: 0
  Segment part 1. ROOT.       Intra module refs:   HalSpiInit
                                                   HalSpiWrite
           ENTRY                   ADDRESS         REF BY
           =====                   =======         ======
           _A_PBOUT_L              0222 
           LOCAL                   ADDRESS         
           =====                   =======         
           PBOUT                   0222 
           PBOUT_H                 0223 
           PBOUT_L                 0222 
    -------------------------------------------------------------------------
DATA16_AN
  Relative segment, address: 0224 - 0225 (0x2 bytes), align: 0
  Segment part 2. ROOT.       Intra module refs:   HalSpiInit
           ENTRY                   ADDRESS         REF BY
           =====                   =======         ======
           _A_PBDIR_L              0224 
           LOCAL                   ADDRESS         
           =====                   =======         
           PBDIR                   0224 
           PBDIR_H                 0225 
           PBDIR_L                 0224 
    -------------------------------------------------------------------------
DATA16_AN
  Relative segment, address: 022A - 022B (0x2 bytes), align: 0
  Segment part 3. ROOT.       Intra module refs:   HalSpiInit
           ENTRY                   ADDRESS         REF BY
           =====                   =======         ======
           _A_PBSEL_L              022A 
           LOCAL                   ADDRESS         
           =====                   =======         
           PBSEL                   022A 
           PBSEL_H                 022B 
           PBSEL_L                 022A 
    -------------------------------------------------------------------------
DATA16_AN
  Relative segment, address: 05E0 - 05E1 (0x2 bytes), align: 0
  Segment part 4. ROOT.       Intra module refs:   HalSpiInit
           ENTRY                   ADDRESS         REF BY
           =====                   =======         ======
           _A_UCB0CTLW0_L          05E0 
           LOCAL                   ADDRESS         
           =====                   =======         
           UCB0CTLW0               05E0 
           UCB0CTLW0_H             05E1 
           UCB0CTLW0_L             05E0 
    -------------------------------------------------------------------------
DATA16_AN
  Relative segment, address: 05E6 - 05E7 (0x2 bytes), align: 0
  Segment part 5. ROOT.       Intra module refs:   HalSpiInit
           ENTRY                   ADDRESS         REF BY
           =====                   =======         ======
           _A_UCB0BRW_L            05E6 
           LOCAL                   ADDRESS         
           =====                   =======         
           UCB0BRW                 05E6 
           UCB0BRW_H               05E7 
           UCB0BRW_L               05E6 
    -------------------------------------------------------------------------
DATA16_AN
  Relative segment, address: 05EC - 05EC (0x1 bytes), align: 0
  Segment part 6. ROOT.       Intra module refs:   HalSpiWrite
           ENTRY                   ADDRESS         REF BY
           =====                   =======         ======
           UCB0RXBUF               05EC 
    -------------------------------------------------------------------------
DATA16_AN
  Relative segment, address: 05EE - 05EE (0x1 bytes), align: 0
  Segment part 7. ROOT.       Intra module refs:   HalSpiFlush
                                                   HalSpiWrite
           ENTRY                   ADDRESS         REF BY
           =====                   =======         ======
           UCB0TXBUF               05EE 
    -------------------------------------------------------------------------
DATA16_AN
  Relative segment, address: 05FC - 05FD (0x2 bytes), align: 0
  Segment part 8. ROOT.       Intra module refs:   HalSpiFlush
                                                   HalSpiWrite
           ENTRY                   ADDRESS         REF BY
           =====                   =======         ======
           _A_UCB0ICTL_L           05FC 
           LOCAL                   ADDRESS         
           =====                   =======         
           UCB0ICTL                05FC 
           UCB0ICTL_H              05FD 
           UCB0ICTL_L              05FC 
    -------------------------------------------------------------------------
CODE
  Relative segment, address: 81C4 - 81DD (0x1a bytes), align: 1
  Segment part 13.
           ENTRY                   ADDRESS         REF BY
           =====                   =======         ======
           HalSpiFlush             81C4            zapPhySpiPoll (zap_phy)
               CSTACK = 00000000 ( 00000004 )
    -------------------------------------------------------------------------
CODE
  Relative segment, address: 81DE - 820D (0x30 bytes), align: 1
  Segment part 12.
           ENTRY                   ADDRESS         REF BY
           =====                   =======         ======
           HalSpiInit              81DE            HalDriverInit (hal_drivers)
               CSTACK = 00000000 ( 00000004 )
    -------------------------------------------------------------------------
CODE
  Relative segment, address: 820E - 8213 (0x6 bytes), align: 1
  Segment part 11.
           ENTRY                   ADDRESS         REF BY
           =====                   =======         ======
           HalSpiPoll              820E            Hal_ProcessPoll (hal_drivers)
               calls direct
               CSTACK = 00000000 ( 00000004 )
    -------------------------------------------------------------------------
CODE
  Relative segment, address: 8214 - 823D (0x2a bytes), align: 1
  Segment part 10.
           ENTRY                   ADDRESS         REF BY
           =====                   =======         ======
           HalSpiWrite             8214            Segment part 36 (zap_phy)
               CSTACK = 00000000 ( 00000004 )

    *************************************************************************

  FILE NAME : C:\Users\student\Documents\GitHub\MHMS\ZAP-MSP430-2.5.1\Projects\zstack\ZAP\TVSA\EXP5438\Routinator\Obj\hal_startup.r43
  PROGRAM MODULE, NAME : hal_startup

  SEGMENTS IN THE MODULE
  ======================
CODE
  Relative segment, address: 823E - 8247 (0xa bytes), align: 1
  Segment part 3. ROOT.
           ENTRY                   ADDRESS         REF BY
           =====                   =======         ======
           __low_level_init        823E            ?cstart_call_low_level_init (?cstart)
               CSTACK = 00000000 ( 00000004 )

    *************************************************************************

  FILE NAME : C:\Users\student\Documents\GitHub\MHMS\ZAP-MSP430-2.5.1\Projects\zstack\ZAP\TVSA\EXP5438\Routinator\Obj\hal_uart.r43
  PROGRAM MODULE, NAME : hal_uart

  SEGMENTS IN THE MODULE
  ======================
DATA16_AN
  Relative segment, address: 0244 - 0245 (0x2 bytes), align: 0
  Segment part 1. ROOT.       Intra module refs:   HalUARTOpen
                                                   pulseAppInit (tvsa)
           ENTRY                   ADDRESS         REF BY
           =====                   =======         ======
           _A_PCDIR_L              0244 
           LOCAL                   ADDRESS         
           =====                   =======         
           PCDIR                   0244 
           PCDIR_H                 0245 
           PCDIR_L                 0244 
    -------------------------------------------------------------------------
DATA16_AN
  Relative segment, address: 024A - 024B (0x2 bytes), align: 0
  Segment part 2. ROOT.       Intra module refs:   HalUARTOpen
           ENTRY                   ADDRESS         REF BY
           =====                   =======         ======
           _A_PCSEL_L              024A 
           LOCAL                   ADDRESS         
           =====                   =======         
           PCSEL                   024A 
           PCSEL_H                 024B 
           PCSEL_L                 024A 
    -------------------------------------------------------------------------
DATA16_AN
  Relative segment, address: 0600 - 0601 (0x2 bytes), align: 0
  Segment part 3. ROOT.       Intra module refs:   HalUARTOpen
           ENTRY                   ADDRESS         REF BY
           =====                   =======         ======
           _A_UCA1CTLW0_L          0600 
           LOCAL                   ADDRESS         
           =====                   =======         
           UCA1CTLW0               0600 
           UCA1CTLW0_H             0601 
           UCA1CTLW0_L             0600 
    -------------------------------------------------------------------------
DATA16_AN
  Relative segment, address: 0606 - 0607 (0x2 bytes), align: 0
  Segment part 4. ROOT.       Intra module refs:   HalUARTOpen
           ENTRY                   ADDRESS         REF BY
           =====                   =======         ======
           _A_UCA1BRW_L            0606 
           LOCAL                   ADDRESS         
           =====                   =======         
           UCA1BRW                 0606 
           UCA1BRW_H               0607 
           UCA1BRW_L               0606 
    -------------------------------------------------------------------------
DATA16_AN
  Relative segment, address: 060C - 060C (0x1 bytes), align: 0
  Segment part 5. ROOT.       Intra module refs:   Hal_UART_RxProcessEvent
           ENTRY                   ADDRESS         REF BY
           =====                   =======         ======
           UCA1RXBUF               060C 
    -------------------------------------------------------------------------
DATA16_AN
  Relative segment, address: 060E - 060E (0x1 bytes), align: 0
  Segment part 6. ROOT.       Intra module refs:   HalUARTWrite
                                                   Hal_UART_TxProcessEvent
           ENTRY                   ADDRESS         REF BY
           =====                   =======         ======
           UCA1TXBUF               060E 
    -------------------------------------------------------------------------
DATA16_AN
  Relative segment, address: 061C - 061D (0x2 bytes), align: 0
  Segment part 7. ROOT.       Intra module refs:   HalUARTOpen
                                                   HalUARTPoll
                                                   HalUARTWrite
                                                   Hal_UART_TxProcessEvent
                                                   halBoardUart1Isr
           ENTRY                   ADDRESS         REF BY
           =====                   =======         ======
           _A_UCA1ICTL_L           061C 
           LOCAL                   ADDRESS         
           =====                   =======         
           UCA1ICTL                061C 
           UCA1ICTL_H              061D 
           UCA1ICTL_L              061C 
    -------------------------------------------------------------------------
DATA16_Z
  Relative segment, address: 2BB4 - 2BD5 (0x22 bytes), align: 1
  Segment part 10.            Intra module refs:   HalUARTOpen
                                                   HalUARTPoll
                                                   HalUARTRead
                                                   HalUARTWrite
                                                   Hal_UART_BufferInit
                                                   Hal_UART_RxBufLen
                                                   Hal_UART_RxProcessEvent
                                                   Hal_UART_SendCallBack
                                                   Hal_UART_TxProcessEvent
           ENTRY                   ADDRESS         REF BY
           =====                   =======         ======
           uartRecord              2BB4 
    -------------------------------------------------------------------------
DATA16_I
  Relative segment, address: 1C00 - 1C09 (0xa bytes), align: 1
  Segment part 11.            Intra module refs:   HalUARTOpen
           ENTRY                   ADDRESS         REF BY
           =====                   =======         ======
           UBRRTable               1C00 
    -------------------------------------------------------------------------
CODE
  Relative segment, address: 8248 - 824B (0x4 bytes), align: 1
  Segment part 26.
           ENTRY                   ADDRESS         REF BY
           =====                   =======         ======
           HalUARTInit             8248            HalDriverInit (hal_drivers)
               calls direct
               CSTACK = 00000000 ( 00000004 )
    -------------------------------------------------------------------------
CODE
  Relative segment, address: 824C - 8275 (0x2a bytes), align: 1
  Segment part 21.            Intra module refs:   HalUARTInit
           LOCAL                   ADDRESS         
           =====                   =======         
           Hal_UART_BufferInit     824C 
               CSTACK = 00000000 ( 00000004 )
    -------------------------------------------------------------------------
CODE
  Relative segment, address: 8276 - 8363 (0xee bytes), align: 1
  Segment part 25.
           ENTRY                   ADDRESS         REF BY
           =====                   =======         ======
           HalUARTOpen             8276            pulseAppInit (tvsa)
               calls direct
               CSTACK = 00000000 ( 00000006 )
    -------------------------------------------------------------------------
CODE
  Relative segment, address: 8364 - 83F3 (0x90 bytes), align: 1
  Segment part 23.
           ENTRY                   ADDRESS         REF BY
           =====                   =======         ======
           HalUARTPoll             8364            Hal_ProcessPoll (hal_drivers)
               calls direct
               CSTACK = 00000000 ( 00000004 )
    -------------------------------------------------------------------------
CODE
  Relative segment, address: 83F4 - 83F9 (0x6 bytes), align: 1
  Segment part 24.            Intra module refs:   HalUARTPoll
                                                   HalUARTRead
           LOCAL                   ADDRESS         
           =====                   =======         
           ?Subroutine0            83F4 
    -------------------------------------------------------------------------
CODE
  Relative segment, address: 83FA - 843F (0x46 bytes), align: 1
  Segment part 20.
           ENTRY                   ADDRESS         REF BY
           =====                   =======         ======
           HalUARTRead             83FA            pulseUartRx (tvsa)
               calls direct
               CSTACK = 00000000 ( 00000008 )
    -------------------------------------------------------------------------
CODE
  Relative segment, address: 8440 - 84CB (0x8c bytes), align: 1
  Segment part 19.
           ENTRY                   ADDRESS         REF BY
           =====                   =======         ======
           HalUARTWrite            8440            ?Subroutine4 (tvsa)
               CSTACK = 00000000 ( 00000008 )
    -------------------------------------------------------------------------
CODE
  Relative segment, address: 84CC - 84DD (0x12 bytes), align: 1
  Segment part 18.            Intra module refs:   ?Subroutine0
           ENTRY                   ADDRESS         REF BY
           =====                   =======         ======
           Hal_UART_RxBufLen       84CC 
               CSTACK = 00000000 ( 00000004 )
    -------------------------------------------------------------------------
CODE
  Relative segment, address: 84DE - 84EF (0x12 bytes), align: 1
  Segment part 16.            Intra module refs:   HalUARTPoll
           LOCAL                   ADDRESS         
           =====                   =======         
           Hal_UART_SendCallBack   84DE 
               calls indirect
               CSTACK = 00000000 ( 00000004 )
    -------------------------------------------------------------------------
CODE
  Relative segment, address: 84F0 - 8523 (0x34 bytes), align: 1
  Segment part 14.            Intra module refs:   HalUARTPoll
                                                   halBoardUart1Isr
           LOCAL                   ADDRESS         
           =====                   =======         
           Hal_UART_RxProcessEvent
                                   84F0 
               calls direct
               CSTACK = 00000000 ( 00000004 )
    -------------------------------------------------------------------------
CODE
  Relative segment, address: 8524 - 8559 (0x36 bytes), align: 1
  Segment part 13.            Intra module refs:   HalUARTPoll
                                                   halBoardUart1Isr
           LOCAL                   ADDRESS         
           =====                   =======         
           Hal_UART_TxProcessEvent
                                   8524 
               CSTACK = 00000000 ( 00000004 )
    -------------------------------------------------------------------------
ISR_CODE
  Relative segment, address: 5CE4 - 5D05 (0x22 bytes), align: 1
  Segment part 27.            Intra module refs:   halBoardUart1Isr::??INTVEC 92
           ENTRY                   ADDRESS         REF BY
           =====                   =======         ======
           halBoardUart1Isr        5CE4 
               interrupt function
               calls direct
               CSTACK = 00000000 ( 0000000C )
    -------------------------------------------------------------------------
INTVEC
  Common segment, address: FF80 - FFDD (0x5e bytes), align: 1
  Segment part 8. ROOT.
           ENTRY                   ADDRESS         REF BY
           =====                   =======         ======
           halBoardUart1Isr::??INTVEC 92
                                   FFDC 
    -------------------------------------------------------------------------
DATA16_ID
  Relative segment, address: 6738 - 6741 (0xa bytes), align: 1
  Segment part 12.            Intra module refs:   UBRRTable

    *************************************************************************

  FILE NAME : C:\Users\student\Documents\GitHub\MHMS\ZAP-MSP430-2.5.1\Projects\zstack\ZAP\TVSA\EXP5438\Routinator\Obj\saddr.r43
  PROGRAM MODULE, NAME : saddr

  SEGMENTS IN THE MODULE
  ======================
CODE
  Relative segment, address: 855A - 855F (0x6 bytes), align: 1
  Segment part 2.
           ENTRY                   ADDRESS         REF BY
           =====                   =======         ======
           sAddrExtCpy             855A            pulseZdoStateChange (tvsa)
               calls direct
               CSTACK = 00000000 ( 00000004 )

    *************************************************************************

  FILE NAME : C:\Users\student\Documents\GitHub\MHMS\ZAP-MSP430-2.5.1\Projects\zstack\ZAP\TVSA\EXP5438\Routinator\Obj\tvsa.r43
  PROGRAM MODULE, NAME : tvsa

  SEGMENTS IN THE MODULE
  ======================
DATA16_AN
  Relative segment, address: 0242 - 0243 (0x2 bytes), align: 0
  Segment part 1. ROOT.       Intra module refs:   pulseAppInit
           ENTRY                   ADDRESS         REF BY
           =====                   =======         ======
           _A_PCOUT_L              0242 
           LOCAL                   ADDRESS         
           =====                   =======         
           PCOUT                   0242 
           PCOUT_H                 0243 
           PCOUT_L                 0242 
    -------------------------------------------------------------------------
DATA16_AN
  Relative segment, address: 01B0 - 01B1 (0x2 bytes), align: 0
  Segment part 3. ROOT.       Intra module refs:   pulseAppInit
           ENTRY                   ADDRESS         REF BY
           =====                   =======         ======
           _A_REFCTL0_L            01B0 
           LOCAL                   ADDRESS         
           =====                   =======         
           REFCTL0                 01B0 
           REFCTL0_H               01B1 
           REFCTL0_L               01B0 
    -------------------------------------------------------------------------
DATA16_C
  Relative segment, address: 665B - 665F (0x5 bytes), align: 0
  Segment part 5.             Intra module refs:   pulseBPM
    -------------------------------------------------------------------------
DATA16_C
  Relative segment, address: 6660 - 6670 (0x11 bytes), align: 0
  Segment part 6.             Intra module refs:   pulseNodeCheckIn
    -------------------------------------------------------------------------
DATA16_C
  Relative segment, address: 6671 - 667F (0xf bytes), align: 0
  Segment part 7.             Intra module refs:   TestPayloadTx
    -------------------------------------------------------------------------
DATA16_C
  Relative segment, address: 656C - 656D (0x2 bytes), align: 1
  Segment part 8.             Intra module refs:   PULSE_SimpleDesc
           LOCAL                   ADDRESS         
           =====                   =======         
           PULSE_ClusterList       656C 
    -------------------------------------------------------------------------
DATA16_C
  Relative segment, address: 656E - 657B (0xe bytes), align: 1
  Segment part 9.             Intra module refs:   PULSE_epDesc
           LOCAL                   ADDRESS         
           =====                   =======         
           PULSE_SimpleDesc        656E 
    -------------------------------------------------------------------------
DATA16_C
  Relative segment, address: 657C - 6583 (0x8 bytes), align: 1
  Segment part 10.            Intra module refs:   ?Subroutine12
                                                   pulseAppInit
           LOCAL                   ADDRESS         
           =====                   =======         
           PULSE_epDesc            657C 
    -------------------------------------------------------------------------
DATA16_Z
  Relative segment, address: 2C44 - 2C44 (0x1 bytes), align: 0
  Segment part 11.            Intra module refs:   ?Subroutine13
                                                   ?Subroutine3
                                                   PULSE_epDesc
                                                   Segment part 67
                                                   TestPayloadTx
                                                   pulseAnnce
                                                   pulseAppEvt
                                                   pulseAppInit
                                                   pulseDataCalc
                                                   pulseZdoStateChange
           ENTRY                   ADDRESS         REF BY
           =====                   =======         ======
           pulseTaskId             2C44            zapKeys (zap_app)
    -------------------------------------------------------------------------
DATA16_Z
  Relative segment, address: 2BD6 - 2BD7 (0x2 bytes), align: 1
  Segment part 12.            Intra module refs:   ?Subroutine11
                                                   ?Subroutine2
                                                   ?Subroutine3
                                                   pulseAfMsgRx
                                                   pulseAnnce
                                                   pulseAppInit
                                                   pulseZdoStateChange
           LOCAL                   ADDRESS         
           =====                   =======         
           pulseAddr               2BD6 
    -------------------------------------------------------------------------
DATA16_Z
  Relative segment, address: 2BD8 - 2BD9 (0x2 bytes), align: 1
  Segment part 13.            Intra module refs:   pulseAnnce
                                                   pulseDataReq
                                                   pulseNodeCheckIn
           LOCAL                   ADDRESS         
           =====                   =======         
           pulseCnt                2BD8 
    -------------------------------------------------------------------------
DATA16_Z
  Relative segment, address: 2C45 - 2C45 (0x1 bytes), align: 0
  Segment part 14.            Intra module refs:   TestPayloadTx
                                                   pulseAnnce
                                                   pulseDataReq
                                                   pulseNodeCheckIn
           LOCAL                   ADDRESS         
           =====                   =======         
           pulseTSN                2C45 
    -------------------------------------------------------------------------
DATA16_Z
  Relative segment, address: 2C46 - 2C5E (0x19 bytes), align: 0
  Segment part 15.            Intra module refs:   pulseDataRx
           LOCAL                   ADDRESS         
           =====                   =======         
           pulseBuf                2C46 
    -------------------------------------------------------------------------
DATA16_Z
  Relative segment, address: 2C5F - 2C74 (0x16 bytes), align: 0
  Segment part 16.            Intra module refs:   pulseAppInit
                                                   pulseDataCalc
                                                   pulseDataReq
                                                   pulseNodeCheckIn
                                                   pulseZdoStateChange
           LOCAL                   ADDRESS         
           =====                   =======         
           pulseDat                2C5F 
    -------------------------------------------------------------------------
DATA16_Z
  Relative segment, address: 2C75 - 2CA6 (0x32 bytes), align: 0
  Segment part 17.            Intra module refs:   TestPayloadTx
                                                   pulseAppInit
                                                   pulseZdoStateChange
           LOCAL                   ADDRESS         
           =====                   =======         
           TestDatTx               2C75 
    -------------------------------------------------------------------------
DATA16_Z
  Relative segment, address: 2CA7 - 2CDB (0x35 bytes), align: 0
  Segment part 18.            Intra module refs:   pulseTestingDataRx
           LOCAL                   ADDRESS         
           =====                   =======         
           TestRxBuffer            2CA7 
    -------------------------------------------------------------------------
DATA16_Z
  Relative segment, address: 2CDC - 2CDC (0x1 bytes), align: 0
  Segment part 19.            Intra module refs:   pulseAfMsgRx
                                                   pulseDataCalc
                                                   pulseZdoStateChange
           LOCAL                   ADDRESS         
           =====                   =======         
           PulseEvtDat_sync        2CDC 
    -------------------------------------------------------------------------
DATA16_Z
  Relative segment, address: 2CDD - 2CDD (0x1 bytes), align: 0
  Segment part 20.            Intra module refs:   pulseDataCalc
                                                   pulseNodeCheckIn
           LOCAL                   ADDRESS         
           =====                   =======         
           PulseEvtReq_sync        2CDD 
    -------------------------------------------------------------------------
DATA16_Z
  Relative segment, address: 2CDE - 2CDE (0x1 bytes), align: 0
  Segment part 21.            Intra module refs:   pulseDataCalc
                                                   pulseDataReq
           LOCAL                   ADDRESS         
           =====                   =======         
           PulseEvtCheckin_sync    2CDE 
    -------------------------------------------------------------------------
DATA16_Z
  Relative segment, address: 2CDF - 2CDF (0x1 bytes), align: 0
  Segment part 26.            Intra module refs:   pulseBPM
           ENTRY                   ADDRESS         REF BY
           =====                   =======         ======
           Pulse                   2CDF 
    -------------------------------------------------------------------------
DATA16_Z
  Relative segment, address: 2CE0 - 2CE0 (0x1 bytes), align: 0
  Segment part 27.            Intra module refs:   pulseBPM
                                                   pulseDataCalc
                                                   pulseDataReq
                                                   pulseNodeCheckIn
           ENTRY                   ADDRESS         REF BY
           =====                   =======         ======
           QS                      2CE0 
    -------------------------------------------------------------------------
CODE
  Relative segment, address: 8560 - 85E1 (0x82 bytes), align: 1
  Segment part 77.
           ENTRY                   ADDRESS         REF BY
           =====                   =======         ======
           pulseAppInit            8560            osalInitTasks (OSAL_TVSA)
               calls direct
               CSTACK = 00000000 ( 00000028 )
    -------------------------------------------------------------------------
CODE
  Relative segment, address: 85E2 - 8675 (0x94 bytes), align: 1
  Segment part 76.
           ENTRY                   ADDRESS         REF BY
           =====                   =======         ======
           pulseAppEvt             85E2            tasksArr (OSAL_TVSA)
               calls direct
               CSTACK = 00000000 ( 0000000C )
    -------------------------------------------------------------------------
CODE
  Relative segment, address: 8676 - 8679 (0x4 bytes), align: 1
  Segment part 66.            Intra module refs:   pulseAnnce
           LOCAL                   ADDRESS         
           =====                   =======         
           ?Subroutine9            8676 
    -------------------------------------------------------------------------
CODE
  Relative segment, address: 867A - 8681 (0x8 bytes), align: 1
  Segment part 67.            Intra module refs:   ?Subroutine9
                                                   pulseAfMsgRx
    -------------------------------------------------------------------------
CODE
  Relative segment, address: 8682 - 8689 (0x8 bytes), align: 1
  Segment part 69.            Intra module refs:   pulseAfMsgRx
                                                   pulseAnnce
                                                   pulseDataCalc
                                                   pulseZdoStateChange
           LOCAL                   ADDRESS         
           =====                   =======         
           ?Subroutine11           8682 
    -------------------------------------------------------------------------
CODE
  Relative segment, address: 868A - 86EF (0x66 bytes), align: 1
  Segment part 75.            Intra module refs:   pulseAppEvt
           LOCAL                   ADDRESS         
           =====                   =======         
           pulseAfMsgRx            868A 
               calls direct
               CSTACK = 00000000 ( 00000006 )
    -------------------------------------------------------------------------
CODE
  Relative segment, address: 86F0 - 873F (0x50 bytes), align: 1
  Segment part 70.            Intra module refs:   pulseAfMsgRx
           LOCAL                   ADDRESS         
           =====                   =======         
           pulseTestingDataRx      86F0 
               calls direct
               CSTACK = 00000000 ( 0000001C )
    -------------------------------------------------------------------------
CODE
  Relative segment, address: 8740 - 87A1 (0x62 bytes), align: 1
  Segment part 71.            Intra module refs:   pulseDataRx
                                                   pulseTestingDataRx
           LOCAL                   ADDRESS         
           =====                   =======         
           ?Subroutine0            8740 
    -------------------------------------------------------------------------
CODE
  Relative segment, address: 87A2 - 87AB (0xa bytes), align: 1
  Segment part 72.            Intra module refs:   ?Subroutine0
                                                   sysPingRsp
           LOCAL                   ADDRESS         
           =====                   =======         
           ?Subroutine4            87A2 
    -------------------------------------------------------------------------
CODE
  Relative segment, address: 87AC - 880B (0x60 bytes), align: 1
  Segment part 73.            Intra module refs:   pulseAfMsgRx
           LOCAL                   ADDRESS         
           =====                   =======         
           pulseDataRx             87AC 
               calls direct
               CSTACK = 00000000 ( 0000001C )
    -------------------------------------------------------------------------
CODE
  Relative segment, address: 880C - 8825 (0x1a bytes), align: 1
  Segment part 74.            Intra module refs:   pulseDataRx
                                                   pulseTestingDataRx
           LOCAL                   ADDRESS         
           =====                   =======         
           ?Subroutine3            880C 
    -------------------------------------------------------------------------
CODE
  Relative segment, address: 8826 - 8943 (0x11e bytes), align: 1
  Segment part 68.            Intra module refs:   pulseAppEvt
           LOCAL                   ADDRESS         
           =====                   =======         
           pulseZdoStateChange     8826 
               calls direct
               CSTACK = 00000000 ( 0000000C )
    -------------------------------------------------------------------------
CODE
  Relative segment, address: 8944 - 89BF (0x7c bytes), align: 1
  Segment part 64.            Intra module refs:   pulseAppEvt
           LOCAL                   ADDRESS         
           =====                   =======         
           pulseAnnce              8944 
               calls direct
               CSTACK = 00000000 ( 0000001C )
    -------------------------------------------------------------------------
CODE
  Relative segment, address: 89C0 - 89CD (0xe bytes), align: 1
  Segment part 65.            Intra module refs:   Segment part 54
                                                   pulseAnnce
           LOCAL                   ADDRESS         
           =====                   =======         
           ?Subroutine12           89C0 
    -------------------------------------------------------------------------
CODE
  Relative segment, address: 89CE - 8A2D (0x60 bytes), align: 1
  Segment part 62.            Intra module refs:   pulseAppEvt
           LOCAL                   ADDRESS         
           =====                   =======         
           pulseDataCalc           89CE 
               calls direct
               CSTACK = 00000000 ( 00000006 )
    -------------------------------------------------------------------------
CODE
  Relative segment, address: 8A2E - 8A33 (0x6 bytes), align: 1
  Segment part 63.            Intra module refs:   TestPayloadTx
                                                   pulseDataCalc
           LOCAL                   ADDRESS         
           =====                   =======         
           ?Subroutine6            8A2E 
    -------------------------------------------------------------------------
CODE
  Relative segment, address: 8A34 - 8BE7 (0x1b4 bytes), align: 1
  Segment part 60.            Intra module refs:   pulseDataCalc
           LOCAL                   ADDRESS         
           =====                   =======         
           pulseBPM                8A34 
               calls direct
               CSTACK = 00000000 ( 00000018 )
    -------------------------------------------------------------------------
CODE
  Relative segment, address: 8BE8 - 8BFD (0x16 bytes), align: 1
  Segment part 61.            Intra module refs:   pulseBPM
           LOCAL                   ADDRESS         
           =====                   =======         
           ?Subroutine10           8BE8 
    -------------------------------------------------------------------------
DATA16_Z
  Relative segment, address: 2BDA - 2BED (0x14 bytes), align: 1
  Segment part 28.            Intra module refs:   pulseBPM
           LOCAL                   ADDRESS         
           =====                   =======         
           pulseBPM::rate          2BDA 
    -------------------------------------------------------------------------
DATA16_Z
  Relative segment, address: 2BEE - 2BF1 (0x4 bytes), align: 1
  Segment part 29.            Intra module refs:   pulseBPM
           LOCAL                   ADDRESS         
           =====                   =======         
           pulseBPM::sampleCounter
                                   2BEE 
    -------------------------------------------------------------------------
DATA16_Z
  Relative segment, address: 2BF2 - 2BF5 (0x4 bytes), align: 1
  Segment part 30.            Intra module refs:   pulseBPM
           LOCAL                   ADDRESS         
           =====                   =======         
           pulseBPM::lastBeatTime
                                   2BF2 
    -------------------------------------------------------------------------
DATA16_I
  Relative segment, address: 1C0A - 1C0B (0x2 bytes), align: 1
  Segment part 31.            Intra module refs:   pulseBPM
           LOCAL                   ADDRESS         
           =====                   =======         
           pulseBPM::P             1C0A 
    -------------------------------------------------------------------------
DATA16_I
  Relative segment, address: 1C0C - 1C0D (0x2 bytes), align: 1
  Segment part 33.            Intra module refs:   pulseBPM
           LOCAL                   ADDRESS         
           =====                   =======         
           pulseBPM::T             1C0C 
    -------------------------------------------------------------------------
DATA16_I
  Relative segment, address: 1C0E - 1C0F (0x2 bytes), align: 1
  Segment part 35.            Intra module refs:   pulseBPM
           LOCAL                   ADDRESS         
           =====                   =======         
           pulseBPM::thresh        1C0E 
    -------------------------------------------------------------------------
DATA16_I
  Relative segment, address: 1C10 - 1C11 (0x2 bytes), align: 1
  Segment part 37.            Intra module refs:   pulseBPM
           LOCAL                   ADDRESS         
           =====                   =======         
           pulseBPM::amp           1C10 
    -------------------------------------------------------------------------
DATA16_I
  Relative segment, address: 1C8C - 1C8C (0x1 bytes), align: 0
  Segment part 39.            Intra module refs:   pulseBPM
           LOCAL                   ADDRESS         
           =====                   =======         
           pulseBPM::firstBeat     1C8C 
    -------------------------------------------------------------------------
DATA16_I
  Relative segment, address: 1C8D - 1C8D (0x1 bytes), align: 0
  Segment part 41.            Intra module refs:   pulseBPM
           LOCAL                   ADDRESS         
           =====                   =======         
           pulseBPM::secondBeat    1C8D 
    -------------------------------------------------------------------------
DATA16_Z
  Relative segment, address: 2CE1 - 2CE1 (0x1 bytes), align: 0
  Segment part 43.            Intra module refs:   pulseDataReq
           LOCAL                   ADDRESS         
           =====                   =======         
           pulseDataReq::pulseDataReqFlag
                                   2CE1 
    -------------------------------------------------------------------------
CODE
  Relative segment, address: 8BFE - 8C69 (0x6c bytes), align: 1
  Segment part 51.            Intra module refs:   pulseAppEvt
           LOCAL                   ADDRESS         
           =====                   =======         
           pulseNodeCheckIn        8BFE 
               calls direct
               CSTACK = 00000000 ( 00000018 )
    -------------------------------------------------------------------------
CODE
  Relative segment, address: 8C6A - 8C6F (0x6 bytes), align: 1
  Segment part 52.            Intra module refs:   pulseDataReq
                                                   pulseNodeCheckIn
           LOCAL                   ADDRESS         
           =====                   =======         
           ?Subroutine1            8C6A 
    -------------------------------------------------------------------------
CODE
  Relative segment, address: 8C70 - 8C73 (0x4 bytes), align: 1
  Segment part 53.            Intra module refs:   pulseDataReq
                                                   pulseNodeCheckIn
           LOCAL                   ADDRESS         
           =====                   =======         
           ?Subroutine8            8C70 
    -------------------------------------------------------------------------
CODE
  Relative segment, address: 8C74 - 8C7B (0x8 bytes), align: 1
  Segment part 54.            Intra module refs:   ?Subroutine8
                                                   TestPayloadTx
    -------------------------------------------------------------------------
CODE
  Relative segment, address: 8C7C - 8C8D (0x12 bytes), align: 1
  Segment part 55.            Intra module refs:   TestPayloadTx
                                                   pulseDataReq
                                                   pulseNodeCheckIn
           LOCAL                   ADDRESS         
           =====                   =======         
           ?Subroutine2            8C7C 
    -------------------------------------------------------------------------
CODE
  Relative segment, address: 8C8E - 8CF1 (0x64 bytes), align: 1
  Segment part 56.            Intra module refs:   pulseAppEvt
           LOCAL                   ADDRESS         
           =====                   =======         
           pulseDataReq            8C8E 
               calls direct
               CSTACK = 00000000 ( 00000018 )
    -------------------------------------------------------------------------
CODE
  Relative segment, address: 8CF2 - 8CF5 (0x4 bytes), align: 1
  Segment part 57.            Intra module refs:   pulseDataReq
                                                   pulseNodeCheckIn
           LOCAL                   ADDRESS         
           =====                   =======         
           ?Subroutine7            8CF2 
    -------------------------------------------------------------------------
CODE
  Relative segment, address: 8CF6 - 8CFB (0x6 bytes), align: 1
  Segment part 58.            Intra module refs:   ?Subroutine5
                                                   ?Subroutine7
           LOCAL                   ADDRESS         
           =====                   =======         
           ?Subroutine13           8CF6 
    -------------------------------------------------------------------------
CODE
  Relative segment, address: 8CFC - 8D03 (0x8 bytes), align: 1
  Segment part 59.            Intra module refs:   pulseDataReq
                                                   pulseNodeCheckIn
           LOCAL                   ADDRESS         
           =====                   =======         
           ?Subroutine5            8CFC 
    -------------------------------------------------------------------------
DATA16_Z
  Relative segment, address: 2CE2 - 2CE2 (0x1 bytes), align: 0
  Segment part 44.            Intra module refs:   pulseNodeCheckIn
           LOCAL                   ADDRESS         
           =====                   =======         
           pulseNodeCheckIn::Flag
                                   2CE2 
    -------------------------------------------------------------------------
CODE
  Relative segment, address: 8D04 - 8D95 (0x92 bytes), align: 1
  Segment part 50.            Intra module refs:   pulseAppEvt
           LOCAL                   ADDRESS         
           =====                   =======         
           TestPayloadTx           8D04 
               calls direct
               CSTACK = 00000000 ( 0000001A )
    -------------------------------------------------------------------------
DATA16_Z
  Relative segment, address: 2CE3 - 2CE3 (0x1 bytes), align: 0
  Segment part 45.            Intra module refs:   TestPayloadTx
           LOCAL                   ADDRESS         
           =====                   =======         
           TestPayloadTx::SeqNum   2CE3 
    -------------------------------------------------------------------------
DATA16_Z
  Relative segment, address: 2CE4 - 2CE4 (0x1 bytes), align: 0
  Segment part 46.            Intra module refs:   TestPayloadTx
           LOCAL                   ADDRESS         
           =====                   =======         
           TestPayloadTx::flag     2CE4 
    -------------------------------------------------------------------------
CODE
  Relative segment, address: 8D96 - 8DB9 (0x24 bytes), align: 1
  Segment part 49.            Intra module refs:   pulseAppInit
           LOCAL                   ADDRESS         
           =====                   =======         
           pulseUartRx             8D96 
               calls direct
               CSTACK = 00000000 ( 0000000A )
    -------------------------------------------------------------------------
CODE
  Relative segment, address: 8DBA - 8DCB (0x12 bytes), align: 1
  Segment part 47.            Intra module refs:   ?Subroutine0
                                                   sysPingRsp
           LOCAL                   ADDRESS         
           =====                   =======         
           calcFCS                 8DBA 
               CSTACK = 00000000 ( 00000004 )
    -------------------------------------------------------------------------
CODE
  Relative segment, address: 8DCC - 8E07 (0x3c bytes), align: 1
  Segment part 48.            Intra module refs:   pulseUartRx
           LOCAL                   ADDRESS         
           =====                   =======         
           sysPingRsp              8DCC 
               calls direct
               CSTACK = 00000000 ( 0000000C )
    -------------------------------------------------------------------------
DATA16_ID
  Relative segment, address: 6742 - 6743 (0x2 bytes), align: 1
  Segment part 32.            Intra module refs:   pulseBPM::P
    -------------------------------------------------------------------------
DATA16_ID
  Relative segment, address: 6744 - 6745 (0x2 bytes), align: 1
  Segment part 34.            Intra module refs:   pulseBPM::T
    -------------------------------------------------------------------------
DATA16_ID
  Relative segment, address: 6746 - 6747 (0x2 bytes), align: 1
  Segment part 36.            Intra module refs:   pulseBPM::thresh
    -------------------------------------------------------------------------
DATA16_ID
  Relative segment, address: 6748 - 6749 (0x2 bytes), align: 1
  Segment part 38.            Intra module refs:   pulseBPM::amp
    -------------------------------------------------------------------------
DATA16_ID
  Relative segment, address: 67C4 - 67C4 (0x1 bytes), align: 0
  Segment part 40.            Intra module refs:   pulseBPM::firstBeat
    -------------------------------------------------------------------------
DATA16_ID
  Relative segment, address: 67C5 - 67C5 (0x1 bytes), align: 0
  Segment part 42.            Intra module refs:   pulseBPM::secondBeat

    *************************************************************************

  FILE NAME : C:\Users\student\Documents\GitHub\MHMS\ZAP-MSP430-2.5.1\Projects\zstack\ZAP\TVSA\EXP5438\Routinator\Obj\zap_af.r43
  PROGRAM MODULE, NAME : zap_af

  SEGMENTS IN THE MODULE
  ======================
DATA16_Z
  Relative segment, address: 2BF6 - 2BF7 (0x2 bytes), align: 1
  Segment part 2.             Intra module refs:   afFindEndPointDescList
                                                   afRegisterExtended
                                                   zapAfSync
           ENTRY                   ADDRESS         REF BY
           =====                   =======         ======
           epList                  2BF6            ZDO_UpdateNwkStatus (zap_zdo)
    -------------------------------------------------------------------------
CODE
  Relative segment, address: 8E08 - 8E27 (0x20 bytes), align: 1
  Segment part 19.
           ENTRY                   ADDRESS         REF BY
           =====                   =======         ======
           zapAfProcessIncoming    8E08            zapProcessFunc (zap_app)
               calls direct
               CSTACK = 00000000 ( 00000004 )
    -------------------------------------------------------------------------
CODE
  Relative segment, address: 8E28 - 8E6B (0x44 bytes), align: 1
  Segment part 18.
           ENTRY                   ADDRESS         REF BY
           =====                   =======         ======
           zapAfSync               8E28            zapSync (zap_app)
               calls direct
               CSTACK = 00000000 ( 00000006 )
    -------------------------------------------------------------------------
CODE
  Relative segment, address: 8E6C - 8EC9 (0x5e bytes), align: 1
  Segment part 16.            Intra module refs:   afRegister
           ENTRY                   ADDRESS         REF BY
           =====                   =======         ======
           afRegisterExtended      8E6C 
               calls direct
               CSTACK = 00000000 ( 0000000C )
    -------------------------------------------------------------------------
CODE
  Relative segment, address: 8ECA - 8EF1 (0x28 bytes), align: 1
  Segment part 17.
           ENTRY                   ADDRESS         REF BY
           =====                   =======         ======
           afRegister              8ECA            pulseAppInit (tvsa)
               calls direct
               CSTACK = 00000000 ( 00000004 )
    -------------------------------------------------------------------------
CODE
  Relative segment, address: 8EF2 - 8FEF (0xfe bytes), align: 1
  Segment part 12.
           ENTRY                   ADDRESS         REF BY
           =====                   =======         ======
           AF_DataRequest          8EF2            Segment part 54 (tvsa)
                                                   pulseAnnce (tvsa)
               calls direct
               CSTACK = 00000000 ( 00000016 )
    -------------------------------------------------------------------------
CODE
  Relative segment, address: 8FF0 - 8FF3 (0x4 bytes), align: 1
  Segment part 13.            Intra module refs:   AF_DataRequest
           LOCAL                   ADDRESS         
           =====                   =======         
           ?Subroutine4            8FF0 
    -------------------------------------------------------------------------
CODE
  Relative segment, address: 8FF4 - 8FFF (0xc bytes), align: 1
  Segment part 14.            Intra module refs:   ?Subroutine4
                                                   AF_DataRequest
    -------------------------------------------------------------------------
CODE
  Relative segment, address: 9000 - 900F (0x10 bytes), align: 1
  Segment part 15.            Intra module refs:   AF_DataRequest
           LOCAL                   ADDRESS         
           =====                   =======         
           ?Subroutine3            9000 
    -------------------------------------------------------------------------
CODE
  Relative segment, address: 9010 - 9051 (0x42 bytes), align: 1
  Segment part 10.            Intra module refs:   zapAfProcessIncoming
           LOCAL                   ADDRESS         
           =====                   =======         
           afCnf                   9010 
               calls direct
               CSTACK = 00000000 ( 00000008 )
    -------------------------------------------------------------------------
CODE
  Relative segment, address: 9052 - 905B (0xa bytes), align: 1
  Segment part 11.            Intra module refs:   afCnf
                                                   afRecv
           LOCAL                   ADDRESS         
           =====                   =======         
           ?Subroutine2            9052 
    -------------------------------------------------------------------------
CODE
  Relative segment, address: 905C - 9079 (0x1e bytes), align: 1
  Segment part 7.             Intra module refs:   afCnf
                                                   afRecv
                                                   afRegister
           LOCAL                   ADDRESS         
           =====                   =======         
           afFindEndPointDescList
                                   905C 
               CSTACK = 00000000 ( 00000004 )
    -------------------------------------------------------------------------
CODE
  Relative segment, address: 907A - 90FB (0x82 bytes), align: 1
  Segment part 8.             Intra module refs:   zapAfProcessIncoming
           LOCAL                   ADDRESS         
           =====                   =======         
           afRecv                  907A 
               calls direct
               CSTACK = 00000000 ( 0000000C )
    -------------------------------------------------------------------------
CODE
  Relative segment, address: 90FC - 91DD (0xe2 bytes), align: 1
  Segment part 3.             Intra module refs:   afRecv
           LOCAL                   ADDRESS         
           =====                   =======         
           afIncMsgPktParse        90FC 
               calls direct
               CSTACK = 00000000 ( 0000000C )
    -------------------------------------------------------------------------
CODE
  Relative segment, address: 91DE - 91E5 (0x8 bytes), align: 1
  Segment part 4.             Intra module refs:   afIncMsgPktParse
           LOCAL                   ADDRESS         
           =====                   =======         
           ?Subroutine1            91DE 
    -------------------------------------------------------------------------
CODE
  Relative segment, address: 91E6 - 91F3 (0xe bytes), align: 1
  Segment part 5.             Intra module refs:   ?Subroutine0
                                                   ?Subroutine1
                                                   afIncMsgPktParse
           LOCAL                   ADDRESS         
           =====                   =======         
           ?Subroutine5            91E6 
    -------------------------------------------------------------------------
CODE
  Relative segment, address: 91F4 - 91FD (0xa bytes), align: 1
  Segment part 6.             Intra module refs:   afIncMsgPktParse
           LOCAL                   ADDRESS         
           =====                   =======         
           ?Subroutine0            91F4 

    *************************************************************************

  FILE NAME : C:\Users\student\Documents\GitHub\MHMS\ZAP-MSP430-2.5.1\Projects\zstack\ZAP\TVSA\EXP5438\Routinator\Obj\zap_app.r43
  PROGRAM MODULE, NAME : zap_app

  SEGMENTS IN THE MODULE
  ======================
DATA16_I
  Relative segment, address: 1C8E - 1C8E (0x1 bytes), align: 0
  Segment part 17.            Intra module refs:   zapSync
                                                   zap_set_logicalType
           LOCAL                   ADDRESS         
           =====                   =======         
           zLogicalType            1C8E 
    -------------------------------------------------------------------------
DATA16_Z
  Relative segment, address: 2CE5 - 2CE5 (0x1 bytes), align: 0
  Segment part 19.            Intra module refs:   ?Subroutine1
                                                   zapEvt
                                                   zapGotSync
                                                   zapInit
           ENTRY                   ADDRESS         REF BY
           =====                   =======         ======
           zapTaskId               2CE5            ?Subroutine13 (zap_zdo)
                                                   Segment part 29 (zap_zdo)
                                                   zapAfSync (zap_af)
                                                   zapPhySpiPoll (zap_phy)
    -------------------------------------------------------------------------
DATA16_Z
  Relative segment, address: 2CE6 - 2CE6 (0x1 bytes), align: 0
  Segment part 20.            Intra module refs:   zapInit
                                                   zapMonitor
                                                   zapSync
           ENTRY                   ADDRESS         REF BY
           =====                   =======         ======
           zapAppPort              2CE6            ?Subroutine1 (zap_sapi)
                                                   AF_DataRequest (zap_af)
                                                   Segment part 8 (zap_zdo)
                                                   zapPhyInit (zap_phy)
                                                   zapPhyReset (zap_phy)
                                                   zapSysReq (zap_sys)
                                                   zapUtilReq (zap_util)
                                                   znp_ZDO_RegisterForZDOMsg (zap_znp)
                                                   znp_afRegisterExtended (zap_znp)
    -------------------------------------------------------------------------
DATA16_Z
  Relative segment, address: 2CE7 - 2CEE (0x8 bytes), align: 0
  Segment part 21.            Intra module refs:   zapDisInfo
                                                   zapMonInfo
                                                   zapSync
           ENTRY                   ADDRESS         REF BY
           =====                   =======         ======
           znpIEEE                 2CE7            pulseZdoStateChange (tvsa)
    -------------------------------------------------------------------------
DATA16_Z
  Relative segment, address: 2BF8 - 2BF9 (0x2 bytes), align: 1
  Segment part 22.            Intra module refs:   ?Subroutine6
                                                   zapDisInfo
                                                   zapLostSync
                                                   zapMonInfo
           ENTRY                   ADDRESS         REF BY
           =====                   =======         ======
           znpAddr                 2BF8 
    -------------------------------------------------------------------------
DATA16_Z
  Relative segment, address: 2BFA - 2BFB (0x2 bytes), align: 1
  Segment part 23.            Intra module refs:   zapLostSync
                                                   zapMonInfo
           ENTRY                   ADDRESS         REF BY
           =====                   =======         ======
           znpParent               2BFA            NLME_GetCoordShortAddr (zap_util)
    -------------------------------------------------------------------------
DATA16_Z
  Relative segment, address: 2BFC - 2BFD (0x2 bytes), align: 1
  Segment part 24.            Intra module refs:   zapDisInfo
                                                   zapLostSync
                                                   zapMonInfo
           ENTRY                   ADDRESS         REF BY
           =====                   =======         ======
           znpPanId                2BFC            afIncMsgPktParse (zap_af)
    -------------------------------------------------------------------------
DATA16_Z
  Relative segment, address: 2CEF - 2CEF (0x1 bytes), align: 0
  Segment part 25.            Intra module refs:   ?Subroutine5
                                                   zapDisInfo
                                                   zapEvt
                                                   zapLostSync
                                                   zapMonInfo
                                                   zapMonitor
                                                   zapSync
           ENTRY                   ADDRESS         REF BY
           =====                   =======         ======
           devState                2CEF            ZDOInitDevice (zap_zdo)
                                                   pulseZdoStateChange (tvsa)
                                                   zapUtilReq (zap_util)
    -------------------------------------------------------------------------
DATA16_C
  Relative segment, address: 6680 - 668A (0xb bytes), align: 0
  Segment part 4.             Intra module refs:   zapDisInfo
    -------------------------------------------------------------------------
DATA16_C
  Relative segment, address: 668B - 6695 (0xb bytes), align: 0
  Segment part 5.             Intra module refs:   zapDisInfo
    -------------------------------------------------------------------------
DATA16_C
  Relative segment, address: 6696 - 66A2 (0xd bytes), align: 0
  Segment part 6.             Intra module refs:   zapDisInfo
    -------------------------------------------------------------------------
DATA16_C
  Relative segment, address: 66A3 - 66AE (0xc bytes), align: 0
  Segment part 7.             Intra module refs:   zapDisInfo
    -------------------------------------------------------------------------
DATA16_C
  Relative segment, address: 66AF - 66B7 (0x9 bytes), align: 0
  Segment part 8.             Intra module refs:   zapDisInfo
    -------------------------------------------------------------------------
DATA16_C
  Relative segment, address: 66B8 - 66BF (0x8 bytes), align: 0
  Segment part 9.             Intra module refs:   zapMonInfo
    -------------------------------------------------------------------------
DATA16_C
  Relative segment, address: 66C0 - 66D1 (0x12 bytes), align: 0
  Segment part 10.            Intra module refs:   zapKeys
    -------------------------------------------------------------------------
DATA16_C
  Relative segment, address: 66D2 - 66E2 (0x11 bytes), align: 0
  Segment part 11.            Intra module refs:   zapKeys
    -------------------------------------------------------------------------
DATA16_C
  Relative segment, address: 66E3 - 66F2 (0x10 bytes), align: 0
  Segment part 12.            Intra module refs:   zapKeys
    -------------------------------------------------------------------------
DATA16_C
  Relative segment, address: 66F3 - 6703 (0x11 bytes), align: 0
  Segment part 13.            Intra module refs:   zapKeys
    -------------------------------------------------------------------------
DATA16_C
  Relative segment, address: 6704 - 6717 (0x14 bytes), align: 0
  Segment part 14.            Intra module refs:   zapKeys
    -------------------------------------------------------------------------
DATA16_C
  Relative segment, address: 6718 - 6727 (0x10 bytes), align: 0
  Segment part 15.            Intra module refs:   zapKeys
    -------------------------------------------------------------------------
DATA16_C
  Relative segment, address: 6728 - 6737 (0x10 bytes), align: 0
  Segment part 16.            Intra module refs:   zapKeys
    -------------------------------------------------------------------------
DATA16_C
  Relative segment, address: 6584 - 65AB (0x28 bytes), align: 1
  Segment part 27.            Intra module refs:   zapProcessIncoming
           LOCAL                   ADDRESS         
           =====                   =======         
           zapProcessFunc          6584 
    -------------------------------------------------------------------------
DATA16_Z
  Relative segment, address: 2BFE - 2BFF (0x2 bytes), align: 1
  Segment part 28.            Intra module refs:   zapDisInfo
           LOCAL                   ADDRESS         
           =====                   =======         
           zapDisAddr              2BFE 
    -------------------------------------------------------------------------
DATA16_Z
  Relative segment, address: 2C00 - 2C01 (0x2 bytes), align: 1
  Segment part 29.            Intra module refs:   zapDisInfo
           LOCAL                   ADDRESS         
           =====                   =======         
           zapDisPanId             2C00 
    -------------------------------------------------------------------------
DATA16_Z
  Relative segment, address: 2CF0 - 2CF7 (0x8 bytes), align: 0
  Segment part 30.            Intra module refs:   zapDisInfo
           LOCAL                   ADDRESS         
           =====                   =======         
           zapDisIEEE              2CF0 
    -------------------------------------------------------------------------
DATA16_Z
  Relative segment, address: 2CF8 - 2CF8 (0x1 bytes), align: 0
  Segment part 31.            Intra module refs:   zapDisInfo
           LOCAL                   ADDRESS         
           =====                   =======         
           zapDisState             2CF8 
    -------------------------------------------------------------------------
DATA16_Z
  Relative segment, address: 2CF9 - 2CF9 (0x1 bytes), align: 0
  Segment part 32.            Intra module refs:   zapMonInfo
           LOCAL                   ADDRESS         
           =====                   =======         
           zapMonInfo::getInfoIdx
                                   2CF9 
    -------------------------------------------------------------------------
CODE
  Relative segment, address: 91FE - 9257 (0x5a bytes), align: 1
  Segment part 44.            Intra module refs:   zapEvt
           LOCAL                   ADDRESS         
           =====                   =======         
           zapMonitor              91FE 
               calls direct
               CSTACK = 00000000 ( 00000004 )
    -------------------------------------------------------------------------
CODE
  Relative segment, address: 9258 - 9279 (0x22 bytes), align: 1
  Segment part 45.            Intra module refs:   zapInit
                                                   zapMonitor
           LOCAL                   ADDRESS         
           =====                   =======         
           ?Subroutine1            9258 
    -------------------------------------------------------------------------
CODE
  Relative segment, address: 927A - 929D (0x24 bytes), align: 1
  Segment part 54.
           ENTRY                   ADDRESS         REF BY
           =====                   =======         ======
           zapInit                 927A            osalInitTasks (OSAL_TVSA)
               calls direct
               CSTACK = 00000000 ( 00000006 )
    -------------------------------------------------------------------------
CODE
  Relative segment, address: 929E - 9337 (0x9a bytes), align: 1
  Segment part 53.
           ENTRY                   ADDRESS         REF BY
           =====                   =======         ======
           zapEvt                  929E            tasksArr (OSAL_TVSA)
               calls direct
               CSTACK = 00000000 ( 0000000C )
    -------------------------------------------------------------------------
CODE
  Relative segment, address: 9338 - 935D (0x26 bytes), align: 1
  Segment part 52.
           ENTRY                   ADDRESS         REF BY
           =====                   =======         ======
           zapGotSync              9338            zapSysProcessIncoming (zap_sys)
                                                   zapUtilProcessIncoming (zap_util)
               calls direct
               CSTACK = 00000000 ( 00000004 )
    -------------------------------------------------------------------------
CODE
  Relative segment, address: 935E - 9375 (0x18 bytes), align: 1
  Segment part 51.            Intra module refs:   zapInit
           ENTRY                   ADDRESS         REF BY
           =====                   =======         ======
           zapLostSync             935E            zapPhyReset (zap_phy)
               CSTACK = 00000000 ( 00000004 )
    -------------------------------------------------------------------------
CODE
  Relative segment, address: 9376 - 93A5 (0x30 bytes), align: 1
  Segment part 50.            Intra module refs:   zapEvt
           ENTRY                   ADDRESS         REF BY
           =====                   =======         ======
           zapProcessIncoming      9376 
               calls indirect
               CSTACK = 00000000 ( 00000006 )
    -------------------------------------------------------------------------
CODE
  Relative segment, address: 93A6 - 93F9 (0x54 bytes), align: 1
  Segment part 49.
           ENTRY                   ADDRESS         REF BY
           =====                   =======         ======
           zap_msg_allocate        93A6            ?Subroutine15 (zap_zdo)
                                                   AF_DataRequest (zap_af)
                                                   sapiReq (zap_sapi)
                                                   zapSysReq (zap_sys)
                                                   zapUtilReq (zap_util)
                                                   zb_PermitJoiningRequest (zap_sapi)
                                                   znp_ZDO_RegisterForZDOMsg (zap_znp)
                                                   znp_afRegisterExtended (zap_znp)
               calls direct
               CSTACK = 00000000 ( 0000000C )
    -------------------------------------------------------------------------
CODE
  Relative segment, address: 93FA - 9419 (0x20 bytes), align: 1
  Segment part 48.
           ENTRY                   ADDRESS         REF BY
           =====                   =======         ======
           zap_msg_deallocate      93FA            ?Subroutine6 (zap_zdo)
                                                   AF_DataRequest (zap_af)
                                                   sapiReq (zap_sapi)
                                                   zapSysReq (zap_sys)
                                                   zapUtilReq (zap_util)
                                                   zb_PermitJoiningRequest (zap_sapi)
                                                   znp_ZDO_RegisterForZDOMsg (zap_znp)
                                                   znp_afRegisterExtended (zap_znp)
               calls direct
               CSTACK = 00000000 ( 00000006 )
    -------------------------------------------------------------------------
CODE
  Relative segment, address: 941A - 94EB (0xd2 bytes), align: 1
  Segment part 41.            Intra module refs:   zapMonInfo
           LOCAL                   ADDRESS         
           =====                   =======         
           zapDisInfo              941A 
               calls direct
               CSTACK = 00000000 ( 0000001E )
    -------------------------------------------------------------------------
CODE
  Relative segment, address: 94EC - 950B (0x20 bytes), align: 1
  Segment part 42.            Intra module refs:   zapDisInfo
           LOCAL                   ADDRESS         
           =====                   =======         
           ?Subroutine4            94EC 
    -------------------------------------------------------------------------
CODE
  Relative segment, address: 950C - 9581 (0x76 bytes), align: 1
  Segment part 43.            Intra module refs:   zapEvt
                                                   zapMonitor
           LOCAL                   ADDRESS         
           =====                   =======         
           zapMonInfo              950C 
               calls direct
               CSTACK = 00000000 ( 00000004 )
    -------------------------------------------------------------------------
CODE
  Relative segment, address: 9582 - 9647 (0xc6 bytes), align: 1
  Segment part 46.            Intra module refs:   zapEvt
           LOCAL                   ADDRESS         
           =====                   =======         
           zapKeys                 9582 
               calls direct
               CSTACK = 00000000 ( 00000008 )
    -------------------------------------------------------------------------
CODE
  Relative segment, address: 9648 - 9655 (0xe bytes), align: 1
  Segment part 47.            Intra module refs:   zapKeys
           LOCAL                   ADDRESS         
           =====                   =======         
           ?Subroutine6            9648 
    -------------------------------------------------------------------------
CODE
  Relative segment, address: 9656 - 9657 (0x2 bytes), align: 1
  Segment part 35.            Intra module refs:   zap_set_logicalType
           LOCAL                   ADDRESS         
           =====                   =======         
           ?Subroutine0            9656 
    -------------------------------------------------------------------------
CODE
  Relative segment, address: 9658 - 9663 (0xc bytes), align: 1
  Segment part 36.            Intra module refs:   ?Subroutine0
                                                   zapSync
    -------------------------------------------------------------------------
CODE
  Relative segment, address: 9664 - 9715 (0xb2 bytes), align: 1
  Segment part 37.            Intra module refs:   zapEvt
           LOCAL                   ADDRESS         
           =====                   =======         
           zapSync                 9664 
               calls direct
               CSTACK = 00000000 ( 0000000E )
    -------------------------------------------------------------------------
CODE
  Relative segment, address: 9716 - 971F (0xa bytes), align: 1
  Segment part 38.            Intra module refs:   zapSync
           LOCAL                   ADDRESS         
           =====                   =======         
           ?Subroutine5            9716 
    -------------------------------------------------------------------------
CODE
  Relative segment, address: 9720 - 972B (0xc bytes), align: 1
  Segment part 39.            Intra module refs:   zapSync
                                                   zap_set_logicalType
           LOCAL                   ADDRESS         
           =====                   =======         
           ?Subroutine3            9720 
    -------------------------------------------------------------------------
CODE
  Relative segment, address: 972C - 9737 (0xc bytes), align: 1
  Segment part 40.            Intra module refs:   zapSync
                                                   zap_set_logicalType
           LOCAL                   ADDRESS         
           =====                   =======         
           ?Subroutine2            972C 
    -------------------------------------------------------------------------
CODE
  Relative segment, address: 9738 - 977D (0x46 bytes), align: 1
  Segment part 34.            Intra module refs:   zapKeys
           ENTRY                   ADDRESS         REF BY
           =====                   =======         ======
           zap_set_logicalType     9738 
               calls direct
               CSTACK = 00000000 ( 00000010 )
    -------------------------------------------------------------------------
CODE
  Relative segment, address: 977E - 978F (0x12 bytes), align: 1
  Segment part 33.            Intra module refs:   zap_set_logicalType
           ENTRY                   ADDRESS         REF BY
           =====                   =======         ======
           quickReset              977E 
               calls direct
               CSTACK = 00000000 ( 00000004 )
    -------------------------------------------------------------------------
DATA16_ID
  Relative segment, address: 67C6 - 67C6 (0x1 bytes), align: 0
  Segment part 18.            Intra module refs:   zLogicalType

    *************************************************************************

  FILE NAME : C:\Users\student\Documents\GitHub\MHMS\ZAP-MSP430-2.5.1\Projects\zstack\ZAP\TVSA\EXP5438\Routinator\Obj\zap_phy.r43
  PROGRAM MODULE, NAME : zap_phy

  SEGMENTS IN THE MODULE
  ======================
DATA16_Z
  Relative segment, address: 2C02 - 2C03 (0x2 bytes), align: 1
  Segment part 12.            Intra module refs:   ?Subroutine7
                                                   zapPhySpiInit
           LOCAL                   ADDRESS         
           =====                   =======         
           zapPhySpiDly            2C02 
    -------------------------------------------------------------------------
CODE
  Relative segment, address: 9790 - 9797 (0x8 bytes), align: 1
  Segment part 24.            Intra module refs:   spiSREQ
                                                   zapPhySpiInit
                                                   zapPhySpiPoll
                                                   zapPhySpiRun
                                                   zapPhySpiSend
           LOCAL                   ADDRESS         
           =====                   =======         
           ?Subroutine6            9790 
    -------------------------------------------------------------------------
CODE
  Relative segment, address: 9798 - 97AF (0x18 bytes), align: 1
  Segment part 29.            Intra module refs:   getSRDY1
                                                   zapPhySpiRun
           LOCAL                   ADDRESS         
           =====                   =======         
           ?Subroutine0            9798 
    -------------------------------------------------------------------------
CODE
  Relative segment, address: 97B0 - 97B7 (0x8 bytes), align: 1
  Segment part 30.            Intra module refs:   ?Subroutine0
                                                   getSRDY1
                                                   getSRDY2
                                                   zapPhySpiPoll
           LOCAL                   ADDRESS         
           =====                   =======         
           ?Subroutine8            97B0 
    -------------------------------------------------------------------------
CODE
  Relative segment, address: 97B8 - 984F (0x98 bytes), align: 1
  Segment part 32.
           ENTRY                   ADDRESS         REF BY
           =====                   =======         ======
           zapPhySpiPoll           97B8            HalSpiPoll (hal_spi)
               calls direct
               CSTACK = 00000000 ( 00000010 )
    -------------------------------------------------------------------------
CODE
  Relative segment, address: 9850 - 9855 (0x6 bytes), align: 1
  Segment part 33.            Intra module refs:   spiSREQ
           LOCAL                   ADDRESS         
           =====                   =======         
           ?Subroutine4            9850 
    -------------------------------------------------------------------------
CODE
  Relative segment, address: 9856 - 9865 (0x10 bytes), align: 1
  Segment part 34.            Intra module refs:   zapPhySpiPoll
           LOCAL                   ADDRESS         
           =====                   =======         
           ?Subroutine2            9856 
    -------------------------------------------------------------------------
CODE
  Relative segment, address: 9866 - 9867 (0x2 bytes), align: 1
  Segment part 35.            Intra module refs:   ?Subroutine1
                                                   ?Subroutine2
           LOCAL                   ADDRESS         
           =====                   =======         
           ?Subroutine9            9866 
    -------------------------------------------------------------------------
CODE
  Relative segment, address: 9868 - 986D (0x6 bytes), align: 1
  Segment part 36.            Intra module refs:   ?Subroutine4
                                                   ?Subroutine9
                                                   zapPhySpiPoll
                                                   zapPhySpiRun
    -------------------------------------------------------------------------
CODE
  Relative segment, address: 986E - 9899 (0x2c bytes), align: 1
  Segment part 23.            Intra module refs:   zapPhyInit
           LOCAL                   ADDRESS         
           =====                   =======         
           zapPhySpiInit           986E 
               CSTACK = 00000000 ( 00000004 )
    -------------------------------------------------------------------------
CODE
  Relative segment, address: 989A - 98AD (0x14 bytes), align: 1
  Segment part 25.            Intra module refs:   getSRDY2
                                                   zapPhySpiInit
           LOCAL                   ADDRESS         
           =====                   =======         
           ?Subroutine3            989A 
    -------------------------------------------------------------------------
CODE
  Relative segment, address: 98AE - 98F5 (0x48 bytes), align: 1
  Segment part 19.            Intra module refs:   zapPhySend
           LOCAL                   ADDRESS         
           =====                   =======         
           zapPhySpiSend           98AE 
               calls direct
               CSTACK = 00000000 ( 0000000C )
    -------------------------------------------------------------------------
CODE
  Relative segment, address: 98F6 - 9927 (0x32 bytes), align: 1
  Segment part 28.            Intra module refs:   zapPhyInit
                                                   zapPhyReset
           LOCAL                   ADDRESS         
           =====                   =======         
           zapPhySpiRun            98F6 
               calls direct
               CSTACK = 00000000 ( 00000008 )
    -------------------------------------------------------------------------
CODE
  Relative segment, address: 9928 - 9931 (0xa bytes), align: 1
  Segment part 31.            Intra module refs:   ?Subroutine0
                                                   getSRDY2
           LOCAL                   ADDRESS         
           =====                   =======         
           ?Subroutine7            9928 
    -------------------------------------------------------------------------
CODE
  Relative segment, address: 9932 - 996B (0x3a bytes), align: 1
  Segment part 18.            Intra module refs:   zapPhySpiSend
           LOCAL                   ADDRESS         
           =====                   =======         
           spiSREQ                 9932 
               calls direct
               CSTACK = 00000000 ( 0000000C )
    -------------------------------------------------------------------------
CODE
  Relative segment, address: 996C - 9985 (0x1a bytes), align: 1
  Segment part 20.            Intra module refs:   spiSREQ
                                                   zapPhySpiSend
           LOCAL                   ADDRESS         
           =====                   =======         
           ?Subroutine1            996C 
    -------------------------------------------------------------------------
CODE
  Relative segment, address: 9986 - 99A5 (0x20 bytes), align: 1
  Segment part 17.            Intra module refs:   ?Subroutine1
           LOCAL                   ADDRESS         
           =====                   =======         
           getSRDY1                9986 
               calls direct
               CSTACK = 00000000 ( 00000006 )
    -------------------------------------------------------------------------
CODE
  Relative segment, address: 99A6 - 99E1 (0x3c bytes), align: 1
  Segment part 15.            Intra module refs:   ?Subroutine1
                                                   zapPhySpiPoll
                                                   zapPhySpiRun
           LOCAL                   ADDRESS         
           =====                   =======         
           getSRDY2                99A6 
               calls direct
               CSTACK = 00000000 ( 00000006 )
    -------------------------------------------------------------------------
CODE
  Relative segment, address: 99E2 - 9A09 (0x28 bytes), align: 1
  Segment part 26.
           ENTRY                   ADDRESS         REF BY
           =====                   =======         ======
           zapPhyInit              99E2            zapInit (zap_app)
               calls direct
               CSTACK = 00000000 ( 00000004 )
    -------------------------------------------------------------------------
CODE
  Relative segment, address: 9A0A - 9A17 (0xe bytes), align: 1
  Segment part 27.            Intra module refs:   zapPhyInit
                                                   zapPhyReset
           LOCAL                   ADDRESS         
           =====                   =======         
           ?Subroutine5            9A0A 
    -------------------------------------------------------------------------
CODE
  Relative segment, address: 9A18 - 9A19 (0x2 bytes), align: 1
  Segment part 22.
           ENTRY                   ADDRESS         REF BY
           =====                   =======         ======
           zapPhyExec              9A18            zapEvt (zap_app)
               CSTACK = 00000000 ( 00000004 )
    -------------------------------------------------------------------------
CODE
  Relative segment, address: 9A1A - 9A3B (0x22 bytes), align: 1
  Segment part 16.            Intra module refs:   getSRDY1
           ENTRY                   ADDRESS         REF BY
           =====                   =======         ======
           zapPhyReset             9A1A            zapMonitor (zap_app)
                                                   zapSync (zap_app)
               calls direct
               CSTACK = 00000000 ( 00000006 )
    -------------------------------------------------------------------------
CODE
  Relative segment, address: 9A3C - 9A3F (0x4 bytes), align: 1
  Segment part 21.
           ENTRY                   ADDRESS         REF BY
           =====                   =======         ======
           zapPhySend              9A3C            ?Subroutine1 (zap_sapi)
                                                   AF_DataRequest (zap_af)
                                                   Segment part 8 (zap_zdo)
                                                   zapSysReq (zap_sys)
                                                   zapUtilReq (zap_util)
                                                   znp_ZDO_RegisterForZDOMsg (zap_znp)
                                                   znp_afRegisterExtended (zap_znp)
               calls direct
               CSTACK = 00000000 ( 00000004 )
    -------------------------------------------------------------------------
CODE
  Relative segment, address: 9A40 - 9A41 (0x2 bytes), align: 1
  Segment part 14.
           ENTRY                   ADDRESS         REF BY
           =====                   =======         ======
           zapPhySync              9A40            zapGotSync (zap_app)
               CSTACK = 00000000 ( 00000004 )

    *************************************************************************

  FILE NAME : C:\Users\student\Documents\GitHub\MHMS\ZAP-MSP430-2.5.1\Projects\zstack\ZAP\TVSA\EXP5438\Routinator\Obj\zap_sapi.r43
  PROGRAM MODULE, NAME : zap_sapi

  SEGMENTS IN THE MODULE
  ======================
CODE
  Relative segment, address: 9A42 - 9A43 (0x2 bytes), align: 1
  Segment part 7.
           ENTRY                   ADDRESS         REF BY
           =====                   =======         ======
           zapSapiProcessIncoming
                                   9A42            zapProcessFunc (zap_app)
               CSTACK = 00000000 ( 00000004 )
    -------------------------------------------------------------------------
CODE
  Relative segment, address: 9A44 - 9AAF (0x6c bytes), align: 1
  Segment part 2.             Intra module refs:   zb_GetDeviceInfo
           LOCAL                   ADDRESS         
           =====                   =======         
           sapiReq                 9A44 
               calls direct
               CSTACK = 00000000 ( 0000000E )
    -------------------------------------------------------------------------
CODE
  Relative segment, address: 9AB0 - 9AB5 (0x6 bytes), align: 1
  Segment part 3.             Intra module refs:   sapiReq
                                                   zb_PermitJoiningRequest
           LOCAL                   ADDRESS         
           =====                   =======         
           ?Subroutine0            9AB0 
    -------------------------------------------------------------------------
CODE
  Relative segment, address: 9AB6 - 9B29 (0x74 bytes), align: 1
  Segment part 4.
           ENTRY                   ADDRESS         REF BY
           =====                   =======         ======
           zb_GetDeviceInfo        9AB6            ?Subroutine5 (zap_app)
                                                   ZDOInitDevice (zap_zdo)
                                                   zapMonInfo (zap_app)
                                                   zapSync (zap_app)
               calls direct
               CSTACK = 00000000 ( 00000016 )
    -------------------------------------------------------------------------
CODE
  Relative segment, address: 9B2A - 9B77 (0x4e bytes), align: 1
  Segment part 5.
           ENTRY                   ADDRESS         REF BY
           =====                   =======         ======
           zb_PermitJoiningRequest
                                   9B2A            ?Subroutine6 (zap_app)
               calls direct
               CSTACK = 00000000 ( 0000000E )
    -------------------------------------------------------------------------
CODE
  Relative segment, address: 9B78 - 9B83 (0xc bytes), align: 1
  Segment part 6.             Intra module refs:   sapiReq
                                                   zb_PermitJoiningRequest
           LOCAL                   ADDRESS         
           =====                   =======         
           ?Subroutine1            9B78 

    *************************************************************************

  FILE NAME : C:\Users\student\Documents\GitHub\MHMS\ZAP-MSP430-2.5.1\Projects\zstack\ZAP\TVSA\EXP5438\Routinator\Obj\zap_sys.r43
  PROGRAM MODULE, NAME : zap_sys

  SEGMENTS IN THE MODULE
  ======================
CODE
  Relative segment, address: 9B84 - 9B91 (0xe bytes), align: 1
  Segment part 4.
           ENTRY                   ADDRESS         REF BY
           =====                   =======         ======
           zapSysProcessIncoming   9B84            zapProcessFunc (zap_app)
               calls direct
               CSTACK = 00000000 ( 00000004 )
    -------------------------------------------------------------------------
CODE
  Relative segment, address: 9B92 - 9D19 (0x188 bytes), align: 1
  Segment part 2.
           ENTRY                   ADDRESS         REF BY
           =====                   =======         ======
           zapSysReq               9B92            ?Subroutine0 (zap_znp)
                                                   Onboard_rand (hal_board)
                                                   znpSystemReset (zap_znp)
               calls direct
               CSTACK = 00000000 ( 0000000E )

    *************************************************************************

  FILE NAME : C:\Users\student\Documents\GitHub\MHMS\ZAP-MSP430-2.5.1\Projects\zstack\ZAP\TVSA\EXP5438\Routinator\Obj\zap_util.r43
  PROGRAM MODULE, NAME : zap_util

  SEGMENTS IN THE MODULE
  ======================
DATA16_Z
  Relative segment, address: 2C04 - 2C15 (0x12 bytes), align: 1
  Segment part 3.             Intra module refs:   zapUtilReq
           LOCAL                   ADDRESS         
           =====                   =======         
           assocDevT               2C04 
    -------------------------------------------------------------------------
CODE
  Relative segment, address: 9D1A - 9D27 (0xe bytes), align: 1
  Segment part 20.
           ENTRY                   ADDRESS         REF BY
           =====                   =======         ======
           zapUtilProcessIncoming
                                   9D1A            zapProcessFunc (zap_app)
               calls direct
               CSTACK = 00000000 ( 00000004 )
    -------------------------------------------------------------------------
CODE
  Relative segment, address: 9D28 - 9D2D (0x6 bytes), align: 1
  Segment part 9.
           ENTRY                   ADDRESS         REF BY
           =====                   =======         ======
           NLME_GetCoordShortAddr
                                   9D28            pulseZdoStateChange (tvsa)
               CSTACK = 00000000 ( 00000004 )
    -------------------------------------------------------------------------
CODE
  Relative segment, address: 9D2E - 9D43 (0x16 bytes), align: 1
  Segment part 6.
           ENTRY                   ADDRESS         REF BY
           =====                   =======         ======
           NLME_SetPollRate        9D2E            pulseAfMsgRx (tvsa)
               calls direct
               CSTACK = 00000000 ( 00000006 )
    -------------------------------------------------------------------------
CODE
  Relative segment, address: 9D44 - 9E4B (0x108 bytes), align: 1
  Segment part 5.
           ENTRY                   ADDRESS         REF BY
           =====                   =======         ======
           zapUtilReq              9D44            zapMonitor (zap_app)
               calls direct
               CSTACK = 00000000 ( 0000000E )

    *************************************************************************

  FILE NAME : C:\Users\student\Documents\GitHub\MHMS\ZAP-MSP430-2.5.1\Projects\zstack\ZAP\TVSA\EXP5438\Routinator\Obj\zap_zdo.r43
  PROGRAM MODULE, NAME : zap_zdo

  SEGMENTS IN THE MODULE
  ======================
DATA16_Z
  Relative segment, address: 2C16 - 2C17 (0x2 bytes), align: 1
  Segment part 2.             Intra module refs:   ZDO_SendMsgCBs
                                                   zapZdoSync
           LOCAL                   ADDRESS         
           =====                   =======         
           zdoMsgCBs               2C16 
    -------------------------------------------------------------------------
DATA16_Z
  Relative segment, address: 2C18 - 2C33 (0x1c bytes), align: 1
  Segment part 3.             Intra module refs:   zapZDO_ConcentratorIndicationCB
           LOCAL                   ADDRESS         
           =====                   =======         
           zdoCBFunc               2C18 
    -------------------------------------------------------------------------
CODE
  Relative segment, address: 9E4C - 9E4F (0x4 bytes), align: 1
  Segment part 28.            Intra module refs:   ZDO_UpdateNwkStatus
                                                   zapZdoProcessIncoming
           LOCAL                   ADDRESS         
           =====                   =======         
           ?Subroutine12           9E4C 
    -------------------------------------------------------------------------
CODE
  Relative segment, address: 9E50 - 9E57 (0x8 bytes), align: 1
  Segment part 29.            Intra module refs:   ?Subroutine12
                                                   ZDOInitDevice
                                                   zapZdoSync
    -------------------------------------------------------------------------
CODE
  Relative segment, address: 9E58 - 9E5D (0x6 bytes), align: 1
  Segment part 32.            Intra module refs:   zapZdoProcessIncoming
           LOCAL                   ADDRESS         
           =====                   =======         
           ?Subroutine11           9E58 
    -------------------------------------------------------------------------
CODE
  Relative segment, address: 9E5E - 9E65 (0x8 bytes), align: 1
  Segment part 33.            Intra module refs:   ?Subroutine11
                                                   zapZDO_ConcentratorIndicationCB
    -------------------------------------------------------------------------
CODE
  Relative segment, address: 9E66 - 9E71 (0xc bytes), align: 1
  Segment part 36.            Intra module refs:   ZDOInitDevice
                                                   zapZdoProcessIncoming
                                                   zapZdoSync
           LOCAL                   ADDRESS         
           =====                   =======         
           ?Subroutine13           9E66 
    -------------------------------------------------------------------------
CODE
  Relative segment, address: 9E72 - 9EF5 (0x84 bytes), align: 1
  Segment part 37.
           ENTRY                   ADDRESS         REF BY
           =====                   =======         ======
           zapZdoProcessIncoming   9E72            zapProcessFunc (zap_app)
               calls direct
               CSTACK = 00000000 ( 0000001C )
    -------------------------------------------------------------------------
CODE
  Relative segment, address: 9EF6 - 9F29 (0x34 bytes), align: 1
  Segment part 35.
           ENTRY                   ADDRESS         REF BY
           =====                   =======         ======
           zapZdoSync              9EF6            zapSync (zap_app)
               calls direct
               CSTACK = 00000000 ( 00000006 )
    -------------------------------------------------------------------------
CODE
  Relative segment, address: 9F2A - 9F31 (0x8 bytes), align: 1
  Segment part 8.             Intra module refs:   ZDOInitDevice
    -------------------------------------------------------------------------
CODE
  Relative segment, address: 9F32 - 9F3D (0xc bytes), align: 1
  Segment part 14.            Intra module refs:   ZDOInitDevice
           LOCAL                   ADDRESS         
           =====                   =======         
           ?Subroutine15           9F32 
    -------------------------------------------------------------------------
CODE
  Relative segment, address: 9F3E - 9F45 (0x8 bytes), align: 1
  Segment part 19.            Intra module refs:   ZDOInitDevice
           LOCAL                   ADDRESS         
           =====                   =======         
           ?Subroutine6            9F3E 
    -------------------------------------------------------------------------
CODE
  Relative segment, address: 9F46 - 9FA1 (0x5c bytes), align: 1
  Segment part 34.
           ENTRY                   ADDRESS         REF BY
           =====                   =======         ======
           ZDOInitDevice           9F46            zapSync (zap_app)
               calls direct
               CSTACK = 00000000 ( 00000006 )
    -------------------------------------------------------------------------
CODE
  Relative segment, address: 9FA2 - 9FD9 (0x38 bytes), align: 1
  Segment part 31.            Intra module refs:   zapZdoProcessIncoming
           LOCAL                   ADDRESS         
           =====                   =======         
           zapZDO_ConcentratorIndicationCB
                                   9FA2 
               calls indirect
               CSTACK = 00000000 ( 0000000A )
    -------------------------------------------------------------------------
CODE
  Relative segment, address: 9FDA - A039 (0x60 bytes), align: 1
  Segment part 27.
           ENTRY                   ADDRESS         REF BY
           =====                   =======         ======
           ZDO_UpdateNwkStatus     9FDA            zapEvt (zap_app)
               calls direct
               CSTACK = 00000000 ( 00000008 )
    -------------------------------------------------------------------------
CODE
  Relative segment, address: A03A - A09D (0x64 bytes), align: 1
  Segment part 4.             Intra module refs:   zapZdoProcessIncoming
           LOCAL                   ADDRESS         
           =====                   =======         
           ZDO_SendMsgCBs          A03A 
               calls direct
               CSTACK = 00000000 ( 0000000C )

    *************************************************************************

  FILE NAME : C:\Users\student\Documents\GitHub\MHMS\ZAP-MSP430-2.5.1\Projects\zstack\ZAP\TVSA\EXP5438\Routinator\Obj\zap_zmac.r43
    *************************************************************************

  FILE NAME : C:\Users\student\Documents\GitHub\MHMS\ZAP-MSP430-2.5.1\Projects\zstack\ZAP\TVSA\EXP5438\Routinator\Obj\zap_znp.r43
  PROGRAM MODULE, NAME : zap_znp

  SEGMENTS IN THE MODULE
  ======================
CODE
  Relative segment, address: A09E - A191 (0xf4 bytes), align: 1
  Segment part 8.
           ENTRY                   ADDRESS         REF BY
           =====                   =======         ======
           znp_afRegisterExtended
                                   A09E            afRegisterExtended (zap_af)
                                                   zapAfSync (zap_af)
               calls direct
               CSTACK = 00000000 ( 0000000E )
    -------------------------------------------------------------------------
CODE
  Relative segment, address: A192 - A1A5 (0x14 bytes), align: 1
  Segment part 9.             Intra module refs:   znp_afRegisterExtended
           LOCAL                   ADDRESS         
           =====                   =======         
           ?Subroutine5            A192 
    -------------------------------------------------------------------------
CODE
  Relative segment, address: A1A6 - A1BB (0x16 bytes), align: 1
  Segment part 10.            Intra module refs:   znp_afRegisterExtended
           LOCAL                   ADDRESS         
           =====                   =======         
           ?Subroutine4            A1A6 
    -------------------------------------------------------------------------
CODE
  Relative segment, address: A1BC - A1D5 (0x1a bytes), align: 1
  Segment part 11.            Intra module refs:   znp_afRegisterExtended
           LOCAL                   ADDRESS         
           =====                   =======         
           ?Subroutine3            A1BC 
    -------------------------------------------------------------------------
CODE
  Relative segment, address: A1D6 - A1E1 (0xc bytes), align: 1
  Segment part 12.            Intra module refs:   znp_afRegisterExtended
           LOCAL                   ADDRESS         
           =====                   =======         
           ?Subroutine2            A1D6 
    -------------------------------------------------------------------------
CODE
  Relative segment, address: A1E2 - A1EB (0xa bytes), align: 1
  Segment part 4.
           ENTRY                   ADDRESS         REF BY
           =====                   =======         ======
           znp_nv_write            A1E2            ?Subroutine2 (zap_app)
                                                   ?Subroutine3 (zap_app)
                                                   NLME_SetPollRate (zap_util)
                                                   Segment part 36 (zap_app)
                                                   zapSync (zap_app)
               calls direct
               CSTACK = 00000000 ( 00000008 )
    -------------------------------------------------------------------------
CODE
  Relative segment, address: A1EC - A1F5 (0xa bytes), align: 1
  Segment part 5.             Intra module refs:   znp_nv_write
           LOCAL                   ADDRESS         
           =====                   =======         
           ?Subroutine0            A1EC 
    -------------------------------------------------------------------------
CODE
  Relative segment, address: A1F6 - A211 (0x1c bytes), align: 1
  Segment part 7.             Intra module refs:   znp_nv_write
           LOCAL                   ADDRESS         
           =====                   =======         
           ?Subroutine1            A1F6 
    -------------------------------------------------------------------------
CODE
  Relative segment, address: A212 - A25D (0x4c bytes), align: 1
  Segment part 3.
           ENTRY                   ADDRESS         REF BY
           =====                   =======         ======
           znp_ZDO_RegisterForZDOMsg
                                   A212            zapZdoSync (zap_zdo)
               calls direct
               CSTACK = 00000000 ( 0000000A )
    -------------------------------------------------------------------------
CODE
  Relative segment, address: A25E - A26F (0x12 bytes), align: 1
  Segment part 2.
           ENTRY                   ADDRESS         REF BY
           =====                   =======         ======
           znpSystemReset          A25E            zapMonitor (zap_app)
               calls direct
               CSTACK = 00000000 ( 00000006 )

    *************************************************************************

  FILE NAME : C:\Program Files (x86)\IAR Systems\Embedded Workbench 6.4\430\LIB\CLIB\cl430xsf.r43
  LIBRARY MODULE, NAME : ?Mul8HwLoc2

  SEGMENTS IN THE MODULE
  ======================
CODE
  Relative segment, address: A270 - A28D (0x1e bytes), align: 1
  Segment part 0.
           ENTRY                   ADDRESS         REF BY
           =====                   =======         ======
           ?Mul8HwLoc2             A270 
           ?Mul16HwLoc2            A274 
           ?Mul16to32uHwLoc2       A274            HalLedUpdate (hal_led)

    -------------------------------------------------------------------------
  LIBRARY MODULE, NAME : ?_exit

  SEGMENTS IN THE MODULE
  ======================
CODE
  Relative segment, address: A28E, align: 1
  Segment part 0.
           ENTRY                   ADDRESS         REF BY
           =====                   =======         ======
           _exit                   A28E            exit (?clibexit)
    -------------------------------------------------------------------------
CODE
  Relative segment, address: A28E - A291 (0x4 bytes), align: 1
  Segment part 6.             Intra module refs:   _exit

    -------------------------------------------------------------------------
  LIBRARY MODULE, NAME : ?clibexit

  SEGMENTS IN THE MODULE
  ======================
CODE
  Relative segment, address: A292 - A295 (0x4 bytes), align: 1
  Segment part 2.
           ENTRY                   ADDRESS         REF BY
           =====                   =======         ======
           exit                    A292            Segment part 22 (?cstart)
               calls direct
               CSTACK = 00000000 ( 00000004 )

    -------------------------------------------------------------------------
  LIBRARY MODULE, NAME : ?__exit

  SEGMENTS IN THE MODULE
  ======================
CODE
  Relative segment, address: A296 - A299 (0x4 bytes), align: 1
  Segment part 0.
           ENTRY                   ADDRESS         REF BY
           =====                   =======         ======
           __exit                  A296            Segment part 6 (?_exit)
                                                   _exit (?_exit)
           ?C_EXIT                 A296 

    -------------------------------------------------------------------------
  LIBRARY MODULE, NAME : ?cstart

  SEGMENTS IN THE MODULE
  ======================
CSTACK
  Relative segment, address: 5A00, align: 1
  Segment part 1.
    -------------------------------------------------------------------------
DATA16_Z
  Relative segment, address: 2C34, align: 1
  Segment part 2.
    -------------------------------------------------------------------------
DATA16_I
  Relative segment, address: 1C12, align: 1
  Segment part 3.
    -------------------------------------------------------------------------
DATA16_ID
  Relative segment, address: 674A, align: 1
  Segment part 4.
    -------------------------------------------------------------------------
CSTART
  Relative segment, address: 5C00 - 5C03 (0x4 bytes), align: 1
  Segment part 12.
           ENTRY                   ADDRESS         REF BY
           =====                   =======         ======
           __program_start         5C00            ?reset_vector (?reset_vector)
                                                   Absolute parts (?ABS_ENTRY_MOD)
           ?cstart_begin           5C00 
    -------------------------------------------------------------------------
CSTART
  Relative segment, address: 5C04 - 5C0B (0x8 bytes), align: 1
  Segment part 13.
           ENTRY                   ADDRESS         REF BY
           =====                   =======         ======
           ?cstart_call_low_level_init
                                   5C04            __low_level_init (hal_startup)
    -------------------------------------------------------------------------
CSTART
  Relative segment, address: 5C0C - 5C17 (0xc bytes), align: 1
  Segment part 15.
           ENTRY                   ADDRESS         REF BY
           =====                   =======         ======
           ?cstart_init_zero       5C0C            HalLedStatusTable (hal_led)
                                                   Hal_KeyIntEnable (hal_key)
                                                   Hal_TaskID (hal_drivers)
                                                   LCD_MEM (hal_lcd)
                                                   LcdAddress (hal_lcd)
                                                   LcdTableAddress (hal_lcd)
                                                   Lcd_Line1 (hal_lcd)
                                                   OSAL_timeSeconds (hal_board)
                                                   OnboardKeyIntEnable (hal_board)
                                                   Pulse (tvsa)
                                                   PulseEvtCheckin_sync (tvsa)
                                                   PulseEvtDat_sync (tvsa)
                                                   PulseEvtReq_sync (tvsa)
                                                   QS (tvsa)
                                                   TestDatTx (tvsa)
                                                   TestPayloadTx::SeqNum (tvsa)
                                                   TestPayloadTx::flag (tvsa)
                                                   TestRxBuffer (tvsa)
                                                   assocDevT (zap_util)
                                                   devState (zap_app)
                                                   epList (zap_af)
                                                   fuIntState (MSP430FlashUtil)
                                                   halAssertHazardLights{18}{19}{25}::escape (hal_assert)
                                                   halBrdDlySleep (hal_board)
                                                   halBrdTmrDly (hal_board)
                                                   halBrdTmrDlyF (hal_board)
                                                   halBrdTmrTick (hal_board)
                                                   halBrdTmrTickShdw (hal_board)
                                                   halIntKeys (hal_key)
                                                   halSavedKeys (hal_key)
                                                   hotOff (OSAL_Nv)
                                                   hotPg (OSAL_Nv)
                                                   ledState (hal_led)
                                                   osalMemStat (OSAL_Memory)
                                                   osal_qHead (OSAL)
                                                   osal_systemClock (OSAL_Timers)
                                                   pHal_KeyProcessFunction (hal_key)
                                                   pgLost (OSAL_Nv)
                                                   pgOff (OSAL_Nv)
                                                   pgRes (OSAL_Nv)
                                                   preBlinkState (hal_led)
                                                   pulseAddr (tvsa)
                                                   pulseBPM::lastBeatTime (tvsa)
                                                   pulseBPM::rate (tvsa)
                                                   pulseBPM::sampleCounter (tvsa)
                                                   pulseBuf (tvsa)
                                                   pulseCnt (tvsa)
                                                   pulseDat (tvsa)
                                                   pulseDataReq::pulseDataReqFlag (tvsa)
                                                   pulseNodeCheckIn::Flag (tvsa)
                                                   pulseTSN (tvsa)
                                                   pulseTaskId (tvsa)
                                                   pwrmgr_attribute (OSAL_PwrMgr)
                                                   s_savWDT (MSP430FlashUtil)
                                                   tasksEvents (OSAL_TVSA)
                                                   timeMSec (hal_board)
                                                   timerHead (OSAL_Timers)
                                                   uartRecord (hal_uart)
                                                   zapAppPort (zap_app)
                                                   zapDisAddr (zap_app)
                                                   zapDisIEEE (zap_app)
                                                   zapDisPanId (zap_app)
                                                   zapDisState (zap_app)
                                                   zapMonInfo::getInfoIdx (zap_app)
                                                   zapPhySpiDly (zap_phy)
                                                   zapTaskId (zap_app)
                                                   zdoCBFunc (zap_zdo)
                                                   zdoMsgCBs (zap_zdo)
                                                   znpAddr (zap_app)
                                                   znpIEEE (zap_app)
                                                   znpPanId (zap_app)
                                                   znpParent (zap_app)
    -------------------------------------------------------------------------
CSTART
  Relative segment, address: 5C18 - 5C27 (0x10 bytes), align: 1
  Segment part 16.
           ENTRY                   ADDRESS         REF BY
           =====                   =======         ======
           ?cstart_init_copy       5C18            Draw_Block_Address_Macro (hal_lcd)
                                                   Draw_Block_Value_Macro (hal_lcd)
                                                   LcdInitMacro (hal_lcd)
                                                   UBRRTable (hal_uart)
                                                   activeTaskID (OSAL)
                                                   pulseBPM::P (tvsa)
                                                   pulseBPM::T (tvsa)
                                                   pulseBPM::amp (tvsa)
                                                   pulseBPM::firstBeat (tvsa)
                                                   pulseBPM::secondBeat (tvsa)
                                                   pulseBPM::thresh (tvsa)
                                                   registeredKeysTaskID (hal_board)
                                                   zLogicalType (zap_app)
    -------------------------------------------------------------------------
CSTART
  Relative segment, address: 5C28 - 5C2F (0x8 bytes), align: 1
  Segment part 22.            Intra module refs:   ?cstart_call_low_level_init
                                                   Segment part 12
           ENTRY                   ADDRESS         REF BY
           =====                   =======         ======
           ?cstart_call_main       5C28 
           ?cstart_end             5C30 

    -------------------------------------------------------------------------
  LIBRARY MODULE, NAME : ?reset_vector

  SEGMENTS IN THE MODULE
  ======================
RESET
  Relative segment, address: FFFE - FFFF (0x2 bytes), align: 1
  Segment part 0.
           ENTRY                   ADDRESS         REF BY
           =====                   =======         ======
           ?reset_vector           FFFE            Segment part 12 (?cstart)

    -------------------------------------------------------------------------
  LIBRARY MODULE, NAME : ?DivMod816u

  SEGMENTS IN THE MODULE
  ======================
CODE
  Relative segment, address: A29A - A2B5 (0x1c bytes), align: 1
  Segment part 0.
           ENTRY                   ADDRESS         REF BY
           =====                   =======         ======
           ?DivMod8u               A29A            ?Subroutine10 (tvsa)
           ?DivMod16u              A29E            ?Subroutine0 (hal_board)
                                                   Segment part 0 (?DivMod816s)
                                                   _itoa (hal_board)

    -------------------------------------------------------------------------
  LIBRARY MODULE, NAME : ?DivMod816s

  SEGMENTS IN THE MODULE
  ======================
CODE
  Relative segment, address: A2B6 - A2E9 (0x34 bytes), align: 1
  Segment part 0.
           ENTRY                   ADDRESS         REF BY
           =====                   =======         ======
           ?DivMod8s               A2B6 
           ?DivMod16s              A2BA            pulseBPM (tvsa)

    -------------------------------------------------------------------------
  LIBRARY MODULE, NAME : ?DivMod32u

  SEGMENTS IN THE MODULE
  ======================
CODE
  Relative segment, address: A2EA - A321 (0x38 bytes), align: 1
  Segment part 0.
           ENTRY                   ADDRESS         REF BY
           =====                   =======         ======
           ?DivMod32u              A2EA            ?DivMod32s (?DivMod32s)
                                                   ?Subroutine6 (OSAL)
                                                   HalLedUpdate (hal_led)
                                                   _ltoa (OSAL)

    -------------------------------------------------------------------------
  LIBRARY MODULE, NAME : ?DivMod32s

  SEGMENTS IN THE MODULE
  ======================
CODE
  Relative segment, address: A322 - A361 (0x40 bytes), align: 1
  Segment part 0.
           ENTRY                   ADDRESS         REF BY
           =====                   =======         ======
           ?DivMod32s              A322            pulseBPM (tvsa)

    -------------------------------------------------------------------------
  LIBRARY MODULE, NAME : ?ShiftLeft32_8n

  SEGMENTS IN THE MODULE
  ======================
CODE
  Relative segment, address: A362 - A36D (0xc bytes), align: 1
  Segment part 6.
           ENTRY                   ADDRESS         REF BY
           =====                   =======         ======
           ?ShiftLeft32_8          A362            afIncMsgPktParse (zap_af)

    -------------------------------------------------------------------------
  LIBRARY MODULE, NAME : ?memcpy

  SEGMENTS IN THE MODULE
  ======================
CODE
  Relative segment, address: A36E - A387 (0x1a bytes), align: 1
  Segment part 2.
           ENTRY                   ADDRESS         REF BY
           =====                   =======         ======
           memcpy                  A36E            __data16_memcpy (?memzero)
               CSTACK = 00000000 ( 00000006 )

    -------------------------------------------------------------------------
  LIBRARY MODULE, NAME : ?ClearMemoryBytes

  SEGMENTS IN THE MODULE
  ======================
CODE
  Relative segment, address: A388 - A397 (0x10 bytes), align: 1
  Segment part 0.
           ENTRY                   ADDRESS         REF BY
           =====                   =======         ======
           ?ClearMemoryBytes       A388            ?Subroutine7 (OSAL)

    -------------------------------------------------------------------------
  LIBRARY MODULE, NAME : ?memset

  SEGMENTS IN THE MODULE
  ======================
CODE
  Relative segment, address: A398 - A3AF (0x18 bytes), align: 1
  Segment part 2.
           ENTRY                   ADDRESS         REF BY
           =====                   =======         ======
           memset                  A398            osal_memset (OSAL)
               CSTACK = 00000000 ( 00000006 )

    -------------------------------------------------------------------------
  LIBRARY MODULE, NAME : ?memzero

  SEGMENTS IN THE MODULE
  ======================
CODE
  Relative segment, address: A3B0 - A3C1 (0x12 bytes), align: 1
  Segment part 4.
           ENTRY                   ADDRESS         REF BY
           =====                   =======         ======
           __data16_memzero        A3B0            ?cstart_init_zero (?cstart)
               CSTACK = 00000000 ( 00000004 )
    -------------------------------------------------------------------------
CODE
  Relative segment, address: A3C2 - A3C5 (0x4 bytes), align: 1
  Segment part 3.
           ENTRY                   ADDRESS         REF BY
           =====                   =======         ======
           __data16_memcpy         A3C2            ?cstart_init_copy (?cstart)
               calls direct
               CSTACK = 00000000 ( 00000004 )

    -------------------------------------------------------------------------
  LIBRARY MODULE, NAME : ?IndCallR15

  SEGMENTS IN THE MODULE
  ======================
CODE
  Relative segment, address: A3C6 - A3C9 (0x4 bytes), align: 1
  Segment part 0.
           ENTRY                   ADDRESS         REF BY
           =====                   =======         ======
           ?IndCallR15             A3C6            osal_run_system (OSAL)
                                                   zapProcessIncoming (zap_app)

    -------------------------------------------------------------------------
  LIBRARY MODULE, NAME : ?strcat

  SEGMENTS IN THE MODULE
  ======================
CODE
  Relative segment, address: A3CA - A3E5 (0x1c bytes), align: 1
  Segment part 2.
           ENTRY                   ADDRESS         REF BY
           =====                   =======         ======
           strcat                  A3CA            ?Subroutine8 (OSAL)
                                                   Segment part 40 (OSAL)
               CSTACK = 00000000 ( 00000004 )

    -------------------------------------------------------------------------
  LIBRARY MODULE, NAME : ?strcpy

  SEGMENTS IN THE MODULE
  ======================
CODE
  Relative segment, address: A3E6 - A3F7 (0x12 bytes), align: 1
  Segment part 2.
           ENTRY                   ADDRESS         REF BY
           =====                   =======         ======
           strcpy                  A3E6            _ltoa (OSAL)
               CSTACK = 00000000 ( 00000004 )

    -------------------------------------------------------------------------
  LIBRARY MODULE, NAME : ?strlen

  SEGMENTS IN THE MODULE
  ======================
CODE
  Relative segment, address: A3F8 - A409 (0x12 bytes), align: 1
  Segment part 2.
           ENTRY                   ADDRESS         REF BY
           =====                   =======         ======
           strlen                  A3F8            _ltoa (OSAL)
                                                   osal_strlen (OSAL)
               CSTACK = 00000000 ( 00000004 )




                ****************************************
                *                                      *
                *            MODULE SUMMARY            *
                *                                      *
                ****************************************

Module                CODE      DATA      CONST
------                ----      ----      -----
                     (Rel)  (Rel)  (Abs)  (Rel)
?ClearMemoryBytes       16
?DivMod32s              64
?DivMod32u              56
?DivMod816s             52
?DivMod816u             28
?IndCallR15              4
?Mul8HwLoc2             30
?ShiftLeft32_8n         12
?__exit                  4
?_exit                   4
?clibexit                4
?cstart                 48
?memcpy                 26
?memset                 24
?memzero                22
?reset_vector            2
?strcat                 28
?strcpy                 18
?strlen                 18
MSP430FlashUtil        148      3      4
  + shared                             2
OSAL                 1 054      3             3
OSAL_Memory            328  4 099
OSAL_Nv             13 698     58             6
OSAL_PwrMgr             10      8
OSAL_TVSA               40      2            13
OSAL_Timers            376      6
hal_adc                128            11
hal_assert             322      1
  + shared                            12
hal_board              448     16      6      1
  + shared             110             2
  + common
hal_dco                424            14
  + shared                             2
hal_drivers            122      1
hal_key                382      7      2
  + shared              86             6
  + common
hal_lcd                924  3 866     20  2 424
  + shared                             2
hal_led                606     42
hal_main               110
hal_spi                122            14
hal_startup             10
hal_uart               820     44     10     10
  + shared              94             2
  + common
saddr                    6
tvsa                 2 216    203      4     71
zap_af               1 014      2
zap_app              1 426     32           225
zap_phy                690      2
zap_sapi               322
zap_sys                406
zap_util               306     18
zap_zdo                594     30
zap_znp                466
N/A (command line)            512
N/A (alignment)
----------          ------  -----    ---  -----
Total:              27 978  8 955    113  2 753
  + common             110


                ****************************************
                *                                      *
                *      SEGMENTS IN ADDRESS ORDER       *
                *                                      *
                ****************************************


SEGMENT              SPACE    START ADDRESS   END ADDRESS     SIZE  TYPE  ALIGN
=======              =====    =============   ===========     ====  ====  =====
DATA16_AN                              0120 - 0121               2   rel    0
                                       0124 - 0127               4 
                                       012C - 012D               2 
                                       0140 - 0141               2 
                                       0144 - 0145               2 
                                       015C - 015D               2 
                                       0160 - 0165               6 
                                       0168 - 0169               2 
                                       01B0 - 01B1               2 
                                       0200 - 0207               8 
                                       020A - 020B               2 
                                       0218 - 021D               6 
                                       0222 - 0225               4 
                                       022A - 022B               2 
                                       0242 - 0245               4 
                                       024A - 024B               2 
                                       0260 - 0267               8 
                                       026A - 026B               2 
                                       0282 - 0285               4 
                                       028A - 028B               2 
                                       0340 - 0343               4 
                                       0348 - 0349               2 
                                       0352 - 0353               2 
                                       0358 - 0359               2 
                                       05E0 - 05E1               2 
                                       05E6 - 05E7               2 
                                       05EC - 05EC               1 
                                       05EE - 05EE               1 
                                       05FC - 05FD               2 
                                       0600 - 0601               2 
                                       0606 - 0607               2 
                                       060C - 060C               1 
                                       060E - 060E               1 
                                       061C - 061D               2 
                                       0660 - 0661               2 
                                       0666 - 0667               2 
                                       066A - 066A               1 
                                       066E - 066E               1 
                                       067C - 067D               2 
                                       0700 - 0705               6 
                                       070A - 070B               2 
                                       0710 - 0710               1 
                                       0720 - 0721               2 
DATA16_I                               1C00 - 1C8E              8F   rel    1
DATA16_Z                               1C90 - 2CF9            106A   rel    1
DATA16_N                               2CFA - 3CFB            1002   rel    1
CSTACK                                 5A00 - 5BFF             200   rel    1
CSTART                                 5C00 - 5C2F              30   rel    1
ISR_CODE                               5C30 - 5D05              D6   rel    1
DATA16_C                               5D06 - 6737             A32   rel    1
DATA16_ID                              6738 - 67C6              8F   rel    1
CODE                                   67C8 - A409            3C42   rel    1
ZIGNV_ADDRESS_SPACE
                                       CA00 - F9FF            3000   rel    0
INTVEC                                 FF80 - FFED              6E   com    1
RESET                                  FFFE - FFFF               2   rel    1

                ****************************************
                *                                      *
                *        END OF CROSS REFERENCE        *
                *                                      *
                ****************************************

 28 088 bytes of CODE  memory
  8 955 bytes of DATA  memory (+ 113 absolute )
  2 753 bytes of CONST memory

Errors: none
Warnings: none

